(dp0
S'qLLvAvAMQLQkbeehklmnjnnppopooxxxahahxxxaxqxxxq_2111200221111100'
p1
(lp2
c__builtin__
complex
p3
(F1.000000000000002
F0.5773502691896264
tp4
Rp5
ag3
(F0.9999999999999984
F1.7320508075688754
tp6
Rp7
ag3
(F2.0
F6.34e-15
tp8
Rp9
ag3
(F-2.0
F-1.531e-15
tp10
Rp11
ag3
(F0.9999999999999987
F0.5773502691896262
tp12
Rp13
ag3
(F1.0000000000000058
F1.732050807568878
tp14
Rp15
ag3
(F1.0000000000000038
F1.7320508075688767
tp16
Rp17
ag3
(F1.000000000000002
F0.5773502691896251
tp18
Rp19
ag3
(F0.9999999999999986
F0.5773502691896252
tp20
Rp21
ag3
(F1.9999999999999996
F-5.207e-15
tp22
Rp23
ag3
(F0.9999999999999996
F0.5773502691896257
tp24
Rp25
ag3
(F0.6666666666666666
F1.26e-16
tp26
Rp27
ag3
(F1.0000000000000002
F0.5773502691896257
tp28
Rp29
ag3
(F1.000000000000005
F1.7320508075688792
tp30
Rp31
ag3
(F0.9999999999999942
F1.732050807568878
tp32
Rp33
ag3
(F0.9999999999999951
F1.732050807568877
tp34
Rp35
asS'qLLvAvPMQLQkbeehlkmnjnnpoopopxxxaaxxxxxaxaxxax_2111200221111100'
p36
(lp37
g3
(F1.0
F0.5773502691896251
tp38
Rp39
ag3
(F1.000000000000001
F1.7320508075688805
tp40
Rp41
ag3
(F1.9999999999999991
F1.011e-15
tp42
Rp43
ag3
(F-2.0000000000000027
F-3.308e-15
tp44
Rp45
ag3
(F0.9999999999999992
F0.5773502691896242
tp46
Rp47
ag3
(F0.9999999999999997
F1.732050807568878
tp48
Rp49
ag3
(F0.9999999999999989
F1.7320508075688783
tp50
Rp51
ag3
(F1.000000000000001
F0.5773502691896265
tp52
Rp53
ag3
(F1.0000000000000009
F0.5773502691896264
tp54
Rp55
ag3
(F2.0000000000000004
F-3.22e-16
tp56
Rp57
ag3
(F1.0000000000000007
F0.5773502691896257
tp58
Rp59
ag3
(F0.6666666666666665
F3.23e-16
tp60
Rp61
ag3
(F0.9999999999999997
F0.5773502691896256
tp62
Rp63
ag3
(F0.9999999999999962
F1.7320508075688756
tp64
Rp65
ag3
(F0.9999999999999982
F1.7320508075688774
tp66
Rp67
ag3
(F0.9999999999999978
F1.7320508075688772
tp68
Rp69
asS'qvvLPQMvQLQkfgfhhgfknlmoppopohahhaaahaqqaqqaaa_1222211100222200'
p70
(lp71
g3
(F0.7500000000000002
F0.4330127018922199
tp72
Rp73
ag3
(F0.25000000000000044
F0.43301270189221863
tp74
Rp75
ag3
(F0.5000000000000002
F3.1e-17
tp76
Rp77
ag3
(F-0.5000000000000001
F9.49e-16
tp78
Rp79
ag3
(F0.24999999999999936
F0.4330127018922194
tp80
Rp81
ag3
(F0.7499999999999996
F0.43301270189221963
tp82
Rp83
ag3
(F0.750000000000001
F0.4330127018922193
tp84
Rp85
ag3
(F0.7500000000000003
F0.4330127018922189
tp86
Rp87
ag3
(F0.24999999999999983
F0.4330127018922189
tp88
Rp89
ag3
(F0.24999999999999983
F0.4330127018922192
tp90
Rp91
ag3
(F0.4999999999999991
F2.53e-16
tp92
Rp93
ag3
(F0.7500000000000002
F0.43301270189221974
tp94
Rp95
ag3
(F0.7499999999999999
F0.43301270189221974
tp96
Rp97
ag3
(F1.4999999999999998
F-3.83e-16
tp98
Rp99
ag3
(F0.2500000000000007
F0.43301270189221935
tp100
Rp101
ag3
(F0.2500000000000009
F0.4330127018922193
tp102
Rp103
as.