(dp0
S'hLALPkbcbegffghhwsaasw_2112201'
p1
(lp2
(I0
I1
tp3
a(F0.847429532486366
F0.025094051572352324
tp4
a(F8.906063649352857
F-0.30403294163588956
tp5
asS'fLLQcbecdeehhnkei_12001'
p6
(lp7
(I2
I2
tp8
a(F0.018460754218901265
F0.7463485878467223
tp9
a(F5.891432295090043
F2.8812198778925904
tp10
asS'hLLwQkbeegfegghhaqqafo_0111000'
p11
(lp12
(I6
I1
tp13
a(F-0.3662210766160675
F0.6612306280773105
tp14
a(F14.90511372387526
F0.5057925151051476
tp15
asS'gLLAQcecdfefhqrwqjj_201022'
p16
(lp17
(I4
I3
tp18
a(F-0.019291116568837512
F-0.056362724349246836
tp19
a(F5.461078326746716
F0.0552397473154284
tp20
asS'fLLQccecddehqrwjj_20102'
p21
(lp22
(I4
I0
tp23
a(F0.5586353731502264
F-0.3711585381335899
tp24
a(F5.252629483939568
F0.5836072923513052
tp25
asS'gLLAQacdefefnsaaxjk_100120'
p26
(lp27
(I3
I0
tp28
a(F0.82083755426846
F-1.044572712500049
tp29
a(F36.6455083394456
F-2.2218344020530494
tp30
asS'gLMzQbcdefffhhhhhit_122112'
p31
(lp32
(I3
I2
tp33
a(F0.31581165113692966
F0.3801299400995003
tp34
a(F5.872763056617064
F0.594309002458827
tp35
asS'hLMzMkbcdefggghhhhhhfo_1221122'
p36
(lp37
(I1
I2
tp38
a(F0.6503482817504878
F-0.3740887595578521
tp39
a(F6.328329906970266
F-2.547444171504036
tp40
asS'fLMPcbcdeeehhhhkn_12211'
p41
(lp42
(I4
I3
tp43
a(F0.9598216888035492
F0.3611940290017386
tp44
a(F6.937503643249557
F-2.781670764188845
tp45
asS'hLLAMkcddefggghsjahqaq_1000110'
p46
(lp47
(I2
I3
tp48
a(F0.6686566736460602
F0.026456922913418505
tp49
a(F6.675314825552789
F2.6589626670467745
tp50
as.