(dp0
S'hLLLQkcdffggfgqgdatkgc_2101221'
p1
(lp2
(I2
I0
tp3
a(F0.7325110028546896
F0.4153851745163345
tp4
a(F7.087650278821979
F-0.27148109012214444
tp5
asS'gLMzQbcdefffhxqqxxq_120021'
p6
(lp7
(I2
I3
tp8
a(F0.7499999999999871
F0.43301270189222896
tp9
a(F6.653846153846154
F2.617993877991496
tp10
asS'gLMzQbcdefffhhhqxpe_122100'
p11
(lp12
(I5
I2
tp13
a(F0.776967896181098
F0.30125476664950135
tp14
a(F4.688651452405275
F-0.5675935538275423
tp15
asS'hLLAPkcecdfggghqrwffwr_2010222'
p16
(lp17
(I0
I3
tp18
a(F0.10406991622131338
F0.15671568261564514
tp19
a(F3.623791513461576
F-2.0265264427444882
tp20
asS'hLLLQkbdeggfgfenaipnnr_0112022'
p21
(lp22
(I0
I2
tp23
a(F0.6056789664580193
F0.43842049624222995
tp24
a(F4.480637700333293
F1.5647133935205202
tp25
asS'gvLQQcdeffefwwraara_201102'
p26
(lp27
(I3
I1
tp28
a(F0.4202586206896562
F0.3307189138830715
tp29
a(F4.909482758620692
F-1.5707963267948974
tp30
asS'hLLLQkbeegefgghhxaxarw_1200111'
p31
(lp32
(I3
I2
tp33
a(F0.5878575285936057
F0.13176600330444665
tp34
a(F3.370403096504995
F-0.588073668772152
tp35
asS'gLMzQbcdefffhhhhxqh_122110'
p36
(lp37
(I4
I3
tp38
a(F0.5620016016773345
F0.5772498656794022
tp39
a(F7.2998130802601455
F3.054575438783755
tp40
asS'fLMPcbcdeeehhqqvc_12200'
p41
(lp42
(I2
I0
tp43
a(F0.49130289846937353
F-0.013691487914475055
tp44
a(F5.486272930406194
F-0.5659145136520211
tp45
asS'eLMkbcdddhhhdu_1221'
p46
(lp47
(I2
I0
tp48
a(F0.48480141790539333
F-0.11212692393199071
tp49
a(F3.809948352637391
F-0.26495475230040055
tp50
asS'cPcbbbiht_12'
p51
(lp52
(I1
I2
tp53
a(F0.7499999999999992
F0.4330127018922166
tp54
a(F4.380127018922193
F2.6179938779914953
tp55
asS'gLLMQaedfdffjxaxjkn_200211'
p56
(lp57
(I2
I2
tp58
a(F0.05193508404873139
F0.6484751467869571
tp59
a(F8.324449367174742
F1.3282425955659645
tp60
asS'hLMzMkbcdefggghhhhhxwb_1221120'
p61
(lp62
(I4
I3
tp63
a(F0.5593433070261814
F0.6173632411054019
tp64
a(F7.766071922708616
F3.0629427358569465
tp65
asS'fLLQcbecdeehhnkei_12001'
p66
(lp67
(I2
I2
tp68
a(F0.9830901943587306
F0.43096983806352424
tp69
a(F5.052083970434222
F2.8812198778925904
tp70
asS'hLLAPkbdeegfggdwdpqgof_2101012'
p71
(lp72
(I6
I0
tp73
a(F0.1339929977797571
F0.06063394575419289
tp74
a(F4.925125625121877
F-0.21015984702263243
tp75
asS'gLLAQcecdfefhqrwqjj_201022'
p76
(lp77
(I4
I3
tp78
a(F0.7331281767444716
F-0.014756945063319057
tp79
a(F3.429345074512861
F0.05523974731542839
tp80
asS'hLMzMkbcdefggghhhhhxrg_1221120'
p81
(lp82
(I3
I2
tp83
a(F0.5249605466163004
F0.41978082483581913
tp84
a(F5.435149932513571
F0.2998885528588381
tp85
asS'hLLLQkbceegfggxclemskw_1022211'
p86
(lp87
(I6
I0
tp88
a(F0.4823634259332103
F0.2916902357951154
tp89
a(F4.297826135597435
F-1.2404134451261388
tp90
asS'eLPkaccddjnkaj_2002'
p91
(lp92
(I2
I2
tp93
a(F0.5941792173157685
F0.8768894076364366
tp94
a(F8.17914626533806
F1.4126868436262738
tp95
asS'hLLAPkccedfggglnxkrgkw_1200111'
p96
(lp97
(I0
I3
tp98
a(F0.029386818872953326
F0.0362739630618063
tp99
a(F5.105978061449414
F2.725925850803938
tp100
asS'gLMzQbcdefffhhhhhpe_122112'
p101
(lp102
(I4
I3
tp103
a(F0.37946744679121375
F0.32878937360882665
tp104
a(F4.569705087615866
F-2.7670745572341238
tp105
asS'gLMzQbcdefffhhqqxhq_122001'
p106
(lp107
(I5
I1
tp108
a(F0.5339439655172408
F-0.02993576375665739
tp109
a(F3.340522472164074
F0.8480620789814822
tp110
asS'fLLQccecddehqrwjj_20102'
p111
(lp112
(I4
I0
tp113
a(F0.8309113271795272
F-0.1243856568964727
tp114
a(F3.5613205079837216
F0.583607292351305
tp115
asS'fLLQcbeddeehhnkhh_21112'
p116
(lp117
(I2
I3
tp118
a(F0.005588235294117535
F0.513823529411766
tp119
a(F5.836137421274458
F0.463647609000806
tp120
asS'hLMzMkbcdefggghhhhxxfo_1221100'
p121
(lp122
(I4
I3
tp123
a(F0.47026138825653646
F0.4294164562208989
tp124
a(F7.9282541719722
F-3.044068738387076
tp125
asS'gLMzQbcdefffhhhqxdu_122100'
p126
(lp127
(I2
I0
tp128
a(F0.5000000000000002
F5.692750766031715e-16
tp129
a(F4.3352061840264255
F-0.8775623461737625
tp130
asS'hLMzMkbcdefggghhhhxxnk_1221100'
p131
(lp132
(I4
I3
tp133
a(F0.8051074257873535
F0.47201156174928827
tp134
a(F8.461842601262605
F2.7545659344039923
tp135
asS'fLMPcbcdeeehhqqnk_12200'
p136
(lp137
(I3
I2
tp138
a(F0.7639091983887044
F0.34428502707953906
tp139
a(F4.49663580533845
F-0.5659145136520224
tp140
asS'gLLPQcdeffefqgddahg_210122'
p141
(lp142
(I3
I0
tp143
a(F0.3609370166827915
F1.2869811750042697
tp144
a(F12.294531387229435
F1.6426109761759509
tp145
asS'hLLAMkbeddfggghhcvahqx_1200112'
p146
(lp147
(I4
I2
tp148
a(F0.25781250000000244
F0.062009796353075686
tp149
a(F5.0625
F0.5974064166453492
tp150
asS'gLLPQccdfeffhwraarw_201022'
p151
(lp152
(I4
I2
tp153
a(F0.15894396551724047
F0.3007831501264154
tp154
a(F3.4094827586206815
F-2.293530574608314
tp155
asS'gLLMQbdeefffxneiahv_102221'
p156
(lp157
(I0
I2
tp158
a(F0.6612773183084337
F0.1280585485427757
tp159
a(F4.789700977377681
F0.4892426525758309
tp160
asS'fLMPcbcdeeehhhhkn_12211'
p161
(lp162
(I4
I3
tp163
a(F0.3726849130132185
F0.36443302335804395
tp164
a(F4.2969934327477155
F-2.781670764188845
tp165
asS'hLLzQkcdfgefggqraqqsjk_0222100'
p166
(lp167
(I6
I1
tp168
a(F0.6425104899354739
F0.5576230726590365
tp169
a(F6.496047016605427
F-0.22128239745176764
tp170
asS'eLAkbbcdddhwqj_2102'
p171
(lp172
(I3
I3
tp173
a(F0.9258414669245856
F-0.11158386057971921
tp174
a(F2.9736175333740964
F0.13814355024470323
tp175
asS'fLMPcbcdeeehhhhvc_12211'
p176
(lp177
(I1
I2
tp178
a(F0.4867626598401973
F-0.193138230661924
tp179
a(F5.235669066020395
F-2.7816707641888447
tp180
asS'hLLAPkccedfggglnhcrwwv_1200111'
p181
(lp182
(I4
I3
tp183
a(F0.34453786735050845
F0.02975313423970072
tp184
a(F4.677303237253241
F-1.7598947634128455
tp185
asS'hLLAMkcdcefggghfrtxhum_2010211'
p186
(lp187
(I1
I2
tp188
a(F0.7557594885763507
F0.7095456612582288
tp189
a(F5.095988937088922
F-1.2325396130523731
tp190
asS'hLLwQkbeegfegghhaqqafo_0111000'
p191
(lp192
(I6
I1
tp193
a(F1.2604849907246065
F0.9023292513656661
tp194
a(F11.359135729081258
F0.5057925151051476
tp195
asS'cPcbbbdxm_10'
p196
(lp197
(I1
I0
tp198
a(F0.7499999999999994
F0.4330127018922188
tp199
a(F2.653846153846154
F1.5707963267948966
tp200
asS'gLLAQbeddfffhhnkabg_211122'
p201
(lp202
(I0
I3
tp203
a(F0.9030935876789271
F0.09764692513771421
tp204
a(F4.051593950362874
F2.2518861450377714
tp205
asS'gLPLQbdcefffhbbqqvc_211100'
p206
(lp207
(I5
I3
tp208
a(F0.4999999999999996
F0.8002425902201227
tp209
a(F6.557889624817611
F-1.9082407495879
tp210
asS'gLMzQbcdefffhhhqxti_122100'
p211
(lp212
(I2
I0
tp213
a(F0.48452075357516844
F-0.02427817515426195
tp214
a(F6.019006927189827
F-0.5675935538275423
tp215
asS'hLMzMkbcdefggghhhhxxvc_1221100'
p216
(lp217
(I3
I2
tp218
a(F0.8422641860940446
F0.32111268727720327
tp219
a(F6.639757205028817
F-0.38702671918580234
tp220
asS'gLPLQbcdfeffhrraarw_120011'
p221
(lp222
(I3
I2
tp223
a(F0.46605603448275607
F-0.02993576375665597
tp224
a(F3.3405224721640727
F-0.8480620789814797
tp225
asS'dLQbccchhfo_122'
p226
(lp227
(I1
I2
tp228
a(F0.5226293103448282
F0.05987152751331489
tp229
a(F4.72421218554653
F2.7802255296830856
tp230
asS'gLMzQbcdefffhhhhxxa_122110'
p231
(lp232
(I3
I2
tp233
a(F0.732875654473391
F0.29502175978192446
tp234
a(F6.3120093264956365
F-0.08701721480603818
tp235
asS'dLQbccchhsj_122'
p236
(lp237
(I2
I0
tp238
a(F0.47737068965517165
F-0.059871527513313344
tp239
a(F3.4075231955455165
F-0.3613671239067077
tp240
asS'gLMzQbcdefffhhqqqdl_122002'
p241
(lp242
(I5
I3
tp243
a(F0.3624033214544086
F0.15025875657144067
tp244
a(F4.325956079157856
F-2.3942482354399894
tp245
asS'gLMzQbcdefffhhqqqum_122002'
p246
(lp247
(I2
I0
tp248
a(F0.5582529190964106
F0.06463430696516084
tp249
a(F6.102771589312565
F-0.7473444181498042
tp250
asS'eLMkbcdddhxqlm_1200'
p251
(lp252
(I2
I3
tp253
a(F0.7499999999999996
F0.43301270189221824
tp254
a(F4.653846153846156
F2.617993877991495
tp255
asS'eLMkbcdddhhhml_1221'
p256
(lp257
(I3
I2
tp258
a(F0.4733231763462485
F0.19245834993684757
tp259
a(F5.027127966172648
F0.3485253852607523
tp260
asS'fLLQcacdedejkaajk_20021'
p261
(lp262
(I1
I0
tp263
a(F0.09076106164547659
F-0.7962930892513791
tp264
a(F8.862175610568206
F2.7096916426619866
tp265
asS'hLLPMkccdfeggghwraahqx_2010221'
p266
(lp267
(I6
I0
tp268
a(F0.6542789372206556
F0.6300895724040626
tp269
a(F5.935529466352064
F1.5707963267948954
tp270
asS'hLLLQkcegfeegghqhaqawr_2010222'
p271
(lp272
(I1
I3
tp273
a(F0.6658801375996745
F0.5275162083886368
tp274
a(F8.682739187837386
F-1.0061913995728948
tp275
asS'hLLLQkcegfeegghqhaxhbg_1222011'
p276
(lp277
(I3
I0
tp278
a(F0.1454863318610701
F-0.17936166142591406
tp279
a(F4.758214582683828
F-2.0809996729779923
tp280
asS'gLLAQcdcefffhfrtxjo_201021'
p281
(lp282
(I2
I1
tp283
a(F0.24344395821430037
F0.10419057892987933
tp284
a(F5.32619384642008
F0.08220471162952965
tp285
asS'gLLAQacdefefnsaaxjk_100120'
p286
(lp287
(I3
I0
tp288
a(F3.925174522515433
F-1.0082703831129096
tp289
a(F23.02182061568735
F-2.221834402053049
tp290
asS'fLMPcbcdeeehhhqrb_12210'
p291
(lp292
(I2
I0
tp293
a(F0.4913662540960897
F-0.058672013582688476
tp294
a(F4.373983756350539
F-0.727363156026471
tp295
asS'dLQacccjsnk_200'
p296
(lp297
(I0
I2
tp298
a(F0.7368968986841486
F-0.007765764826075229
tp299
a(F3.7163399630546277
F-0.21461506872564518
tp300
asS'hLALPkbcbegffghhwsaasw_2112201'
p301
(lp302
(I0
I1
tp303
a(F0.8581970970735512
F1.180678976329086
tp304
a(F6.132263452966532
F-0.3040329416358895
tp305
asS'hLLMMkaedfdgggjxaxjxqh_2002110'
p306
(lp307
(I2
I2
tp308
a(F-0.07812500000000323
F0.6200979635307615
tp309
a(F8.396893026590252
F1.3347570340562547
tp310
asS'eLPkbcdddhrrcv_1200'
p311
(lp312
(I1
I2
tp313
a(F0.7315021448974771
F0.09317213873771736
tp314
a(F2.9823494848317003
F2.132530622428171
tp315
asS'eLMkbcdddhxqdu_1200'
p316
(lp317
(I3
I2
tp318
a(F0.5000000000000001
F6.009258394948636e-16
tp319
a(F4.380127018922192
F-0.5235987755982984
tp320
asS'fLLQcbeddeehhcvxx_12001'
p321
(lp322
(I1
I2
tp323
a(F0.7120115291197364
F0.08255154055205824
tp324
a(F6.3166492078364165
F3.054575438783756
tp325
asS'eLMkbcdddhhqxh_1220'
p326
(lp327
(I2
I0
tp328
a(F0.5000000000000003
F-3.3306690738754696e-16
tp329
a(F3.8183766184073527
F-0.7853981633974474
tp330
asS'gLLPQccdeffflncxqnw_120011'
p331
(lp332
(I4
I3
tp333
a(F0.4741800093531532
F0.5252581904404922
tp334
a(F6.076768639071306
F-1.1372948106035323
tp335
asS'fLLQcbddeeehrcdui_12000'
p336
(lp337
(I2
I1
tp338
a(F0.4429229831293397
F0.38523449517026914
tp339
a(F4.279800902148776
F-1.3741838923409022
tp340
asS'hLLLQkcdefeggghftaqgcn_2010220'
p341
(lp342
(I3
I1
tp343
a(F0.25087622988426134
F0.5765143887533205
tp344
a(F6.46575959212154
F-1.0203020200558826
tp345
asS'hLLPAkcecfeegghqraxhhr_1222012'
p346
(lp347
(I3
I1
tp348
a(F0.6434744392997126
F0.09377497640637669
tp349
a(F4.982991162365084
F-1.1093679679797852
tp350
asS'hLMzMkbcdefggghhhhhhsj_1221122'
p351
(lp352
(I6
I0
tp353
a(F0.5488097874235546
F-0.07005944093377628
tp354
a(F4.436251474783353
F-0.12697031003750206
tp355
asS'gLMzQbcdefffhhqqxxa_122001'
p356
(lp357
(I2
I0
tp358
a(F0.47737068965517154
F-0.059871527513315335
tp359
a(F6.235950320291712
F-0.36136712390670694
tp360
asS'eLAkbccddhhsqs_1220'
p361
(lp362
(I2
I0
tp363
a(F0.830882778980623
F-0.09118384968452135
tp364
a(F4.2302184290164755
F-0.33344289979130626
tp365
asS'hLLzQkcdefggfghspadgsg_1222011'
p366
(lp367
(I3
I2
tp368
a(F0.36940224636566676
F0.11818458453711947
tp369
a(F7.610384944513426
F-0.21090945738515832
tp370
asS'fLLQcaedeedjxahqj_20021'
p371
(lp372
(I2
I2
tp373
a(F0.3325783424903269
F0.7038423836225668
tp374
a(F8.143140814448673
F1.3318180093063654
tp375
asS'gLLMQbdeefffdwdetpw_210101'
p376
(lp377
(I2
I3
tp378
a(F0.7681553761119787
F0.7182821264778716
tp379
a(F5.2017356729606075
F1.807534352488455
tp380
asS'gLvQQadfedefjaaajkk_200211'
p381
(lp382
(I4
I2
tp383
a(F0.25000000000000433
F0.7125265620319725
tp384
a(F5.895736177955666
F-2.1292593852107844
tp385
asS'fLMPcbcdeeehhhqwg_12210'
p386
(lp387
(I3
I2
tp388
a(F0.6396996356771786
F0.37501128450570276
tp389
a(F5.743202930993232
F-0.07828680836980353
tp390
asS'hLLAMkcddefggghsjahqaq_1000110'
p391
(lp392
(I2
I3
tp393
a(F0.5338133470824121
F-0.6329963623164405
tp394
a(F5.347328339841829
F2.6589626670467745
tp395
asS'hLLAPkbeddfggghhnkbgfo_2111222'
p396
(lp397
(I3
I0
tp398
a(F0.4848230950343204
F0.046832121573511284
tp399
a(F8.338295693416004
F1.7800111642976664
tp400
asS'hLLLQkcdgfefgghfhaqofo_2010222'
p401
(lp402
(I3
I0
tp403
a(F0.3236269489501383
F1.0867301733606813
tp404
a(F9.032331332634424
F-1.6768872176337863
tp405
asS'gLMzQbcdefffhxqqxha_120021'
p406
(lp407
(I5
I1
tp408
a(F0.5000000000000021
F5.768888059150701e-16
tp409
a(F4.380127018922188
F0.5235987755982968
tp410
asS'hLLLQkbdfggfgfxnqahnvc_1022201'
p411
(lp412
(I2
I2
tp413
a(F0.22551876878481186
F-0.15818566155188832
tp414
a(F6.162180730863037
F-2.492238881849455
tp415
asS'gvLQQcdefeffwcgmktq_102021'
p416
(lp417
(I0
I2
tp418
a(F0.34004331766831886
F0.11365038768909441
tp419
a(F5.098076211353315
F0.3225512784631633
tp420
asS'hLLAMkbeddfggghhnkahha_2111221'
p421
(lp422
(I0
I3
tp423
a(F0.9830047765462643
F-0.005354798677914685
tp424
a(F4.714738597508024
F2.222787391384035
tp425
asS'gLLAQbeddfffhhcvarw_120011'
p426
(lp427
(I4
I2
tp428
a(F0.27054494740628465
F0.03127717398121609
tp429
a(F5.464551404871076
F0.4543411639040503
tp430
asS'gLLPQbefefefhhxhqhh_211120'
p431
(lp432
(I2
I3
tp433
a(F0.01443375672974378
F0.36639536313956944
tp434
a(F8.028867513459486
F-1.025580099404567e-15
tp435
asS'hLLPPkaceeffggjkqsbjqs_2002120'
p436
(lp437
(I2
I2
tp438
a(F0.619405773292332
F0.5656955253706746
tp439
a(F6.6557925385906405
F0.9392777681187524
tp440
asS'fLLQcbcdeeelonlel_02211'
p441
(lp442
(I1
I3
tp443
a(F0.5594379202883486
F0.0788422963861004
tp444
a(F4.808931534691339
F-0.9082675932195714
tp445
asS'hLLMMkbedfeggghhcqxcvn_1200121'
p446
(lp447
(I2
I1
tp448
a(F0.24488129371627834
F0.6710388791098486
tp449
a(F6.640726238781806
F-1.2741177108617128
tp450
asS'hLLzQkcdfgegfghshahwwc_1222011'
p451
(lp452
(I6
I3
tp453
a(F0.7748815683561874
F0.34653173143075156
tp454
a(F8.363012039424719
F0.5585291506090593
tp455
asS'hLMzMkbcdefggghhhhxxjs_1221100'
p456
(lp457
(I3
I2
tp458
a(F0.589230755309173
F0.8727520092517178
tp459
a(F6.116675885326255
F0.09752391520271816
tp460
asS'hLLPAkccdfefgghwraarhw_2010221'
p461
(lp462
(I1
I2
tp463
a(F0.3607770121465499
F1.0030412378965508
tp464
a(F10.327401421429263
F-1.5165517068940368
tp465
asS'gLMzQbcdefffhhhqxlm_122100'
p466
(lp467
(I5
I2
tp468
a(F0.5000000000000003
F6.568558576190452e-16
tp469
a(F3.3859020093878973
F-0.8775623461737643
tp470
asS'eLMkbcdddhhqqa_1220'
p471
(lp472
(I3
I2
tp473
a(F0.5000000000000004
F4.440892098500626e-16
tp474
a(F3.570889244992063
F-0.7853981633974491
tp475
asS'hLLLQkbceegfggtsumxfjr_2010222'
p476
(lp477
(I3
I3
tp478
a(F0.6527915149660114
F0.5093223786921827
tp479
a(F6.689406570882864
F2.5872109256130003
tp480
asS'hLLLQkbeefeggghhhqhqvc_2111200'
p481
(lp482
(I6
I3
tp483
a(F0.9718146480050124
F0.8609890339571556
tp484
a(F7.661689930613911
F-1.9744211392595437
tp485
asS'gLMzQbcdefffhhhhhit_122112'
p486
(lp487
(I3
I2
tp488
a(F0.3931482498186925
F0.2656952842190465
tp489
a(F4.438376309496408
F0.594309002458827
tp490
asS'eLAkaccddjsnak_2001'
p491
(lp492
(I2
I2
tp493
a(F0.030650792576597464
F0.9407567343846156
tp494
a(F7.61080175721008
F1.1780169691229194
tp495
asS'hLMzMkbcdefggghhhhhhfo_1221122'
p496
(lp497
(I1
I2
tp498
a(F0.5863945149348072
F-0.2794238756713451
tp499
a(F4.602219261111314
F-2.547444171504036
tp500
as.