(dp0
S'mLALLzMAQcbbeghikjjlllqqjnanpdabaax_022001212201'
p1
(lp2
(I5
I1
tp3
a(F-0.09773263484826507
F1.9000648771984354
tp4
a(F10.147941092088924
F-2.744936109243681
tp5
asS'mLvLALPQQcghffkijkljllhuphoanalqloo_201021102100'
p6
(lp7
(I0
I2
tp8
a(F-0.04014280250484167
F0.3105255710274529
tp9
a(F14.164217867236685
F-0.8695913731286897
tp10
asS'mvLLLAMQQefhgjkklikljlkqqudkvawcabu_120201111012'
p11
(lp12
(I8
I0
tp13
a(F1.4264284899589774
F1.2688978351830091
tp14
a(F17.315659166707096
F-1.4454590895161983
tp15
asS'mLLvLPQPQbeekijigjllklhhaavkvrfluqc_011102200012'
p16
(lp17
(I11
I1
tp18
a(F0.6860910325766562
F0.7437613946738477
tp19
a(F10.460646425443853
F0.5204670675473412
tp20
asS'mLLLMvPQQbdgfhlikjjllkdwxxbdtxdcrrw_210102121110'
p21
(lp22
(I8
I0
tp23
a(F0.31739643803380196
F-0.13569197722215107
tp24
a(F7.197264974617944
F-2.6680465985904416
tp25
asS'nLvvLLQQQkcgkkhijllmmlmkhtrsjjvdattaqf_2010211002210'
p26
(lp27
(I5
I3
tp28
a(F0.6002342320520994
F0.5750586705257329
tp29
a(F4.318377602635462
F1.986071763802749
tp30
asS'nLLLPMMzMkbcgefhihjklmmmtsdawsqfdqxqpe_2010222101200'
p31
(lp32
(I1
I1
tp33
a(F0.23039941877595746
F0.20858785036897637
tp34
a(F10.256830297446477
F2.636542640553138
tp35
asS'nLvvALPQQkcefgjmkmlmlklkhuhvfaaetetaqh_2010211002100'
p36
(lp37
(I5
I3
tp38
a(F0.5722595768060968
F0.9478093246690749
tp39
a(F7.289284430360521
F1.7861914331991766
tp40
asS'nLvLLLPQQkcegjkimjmklklmhttsdvxwdehhqs_2010211022110'
p41
(lp42
(I11
I1
tp43
a(F-0.4045512480427214
F0.9465932249345131
tp44
a(F10.393547999039345
F1.3387393698673367
tp45
asS'nLLvALAAQkbefhjiiklkmllmhhxaacclqakvkr_1200111110022'
p46
(lp47
(I5
I0
tp48
a(F0.7204104577959906
F0.9776095964981787
tp49
a(F16.4023293672254
F-2.5665022143279024
tp50
asS'kLLLvQQkbefijhijihjxxqwwsobgbg_1022101111'
p51
(lp52
(I2
I2
tp53
a(F0.016668845269629303
F-0.04522766170804957
tp54
a(F4.609566593003382
F-3.0604422784748535
tp55
asS'mLLLwMwQQcdgfgjikiklllhfhafhhqqjwrj_201022221101'
p56
(lp57
(I10
I0
tp58
a(F0.8875648429837042
F-0.04603288259253543
tp59
a(F7.651346662900402
F-0.6946247239788748
tp60
asS'nLLLwvQMQkcdgfjhkijlmlmmqgqamrxukfffso_2101222211100'
p61
(lp62
(I10
I0
tp63
a(F1.0846459687235757
F0.4564035486774386
tp64
a(F10.049962756151368
F1.3413818987902957
tp65
asS'nLLLvMQzQkacfikkkjhlmlmmjkgmtqdxskqgmd_2002121010022'
p66
(lp67
(I12
I1
tp68
a(F0.9599589989605043
F-0.4698653693757068
tp69
a(F18.402278154565252
F0.7513869970194742
tp70
asS'nvLALMvQQkecfghikljklmmmccaxmjiefqqqcb_1000011221022'
p71
(lp72
(I3
I0
tp73
a(F-0.18312211186310756
F0.4342442362369397
tp74
a(F9.417850995421407
F-0.8780418184205795
tp75
asS'lLLLLPAQcbefgjhhjikkkxxqhxbwubtiv_10221011102'
p76
(lp77
(I5
I0
tp78
a(F0.33502461479411666
F-0.19909660452799127
tp79
a(F5.629982676453291
F-1.2840458300888975
tp80
asS'mLLLLzQMQbeggjjhikllklhhquhtcoxlugc_120011211200'
p81
(lp82
(I6
I2
tp83
a(F0.41053762487879925
F0.5181600285650201
tp84
a(F7.222424572359582
F-2.2939468905530513
tp85
asS'nLLLwLMAQkcdgfjilklkmlmmqgqalxqhtfjswj_2101222201000'
p86
(lp87
(I11
I0
tp88
a(F0.7823599858215554
F1.2523040513020982
tp89
a(F10.32279345805778
F-0.011421258978552194
tp90
asS'nLLLvAQMMkbefijkjihjlmmmxxqwwqbgbghqxh_1022101111220'
p91
(lp92
(I10
I2
tp93
a(F-0.06624426101073068
F0.3993027236201893
tp94
a(F9.538436732867272
F2.3076144375299457
tp95
asS'nLLLLzPPQkbeggjhiimlllmmhhquhcovavkvjs_1200112112000'
p96
(lp97
(I6
I2
tp98
a(F0.08124149362000901
F0.5005732145626212
tp99
a(F6.296630197763603
F-2.0675048141275547
tp100
asS'mLLLvAMQQbefijiikkljllxxqwwogiphgho_102210111112'
p101
(lp102
(I2
I2
tp103
a(F-0.029081062643250864
F-0.02721771162838044
tp104
a(F4.819517863545897
F-2.9852323493921236
tp105
asS'nLLLwLPQPkcdefhkikljmlmmhftafdeambaglh_2010220211012'
p106
(lp107
(I12
I0
tp108
a(F0.6016772881341355
F0.6194388498421799
tp109
a(F7.102065318400069
F2.254977396743207
tp110
asS'nLvvLMQPQkceghkjilmjklmmqqvfgkrixwfhlf_2101020110212'
p111
(lp112
(I12
I0
tp113
a(F0.6815713197636435
F-0.43969219143214416
tp114
a(F15.650416925602928
F-1.8377685237710681
tp115
asS'mLLLLPAPQbeggfjhillkklhhquvacolujsv_120011211000'
p116
(lp117
(I3
I3
tp118
a(F0.35218984186579305
F0.07258942005658278
tp119
a(F7.433459651925104
F-0.7258582308748086
tp120
asS'nLAwLwMwQkcbbdfhijkmklmmhhrhjaoxhwogsr_1221220102222'
p121
(lp122
(I0
I1
tp123
a(F0.7288356374273597
F-0.37028400360877967
tp124
a(F9.68154846097401
F-2.8460851559929576
tp125
asS'mLLvAPPAQbefhjiikkklllxxhaxbbitaawg_102211111022'
p126
(lp127
(I3
I3
tp128
a(F0.525486532098274
F0.28575683789021594
tp129
a(F4.070643708186714
F2.527488101901504
tp130
asS'nLvvMLMQQkbhfgljmkljmlkmhhhbxfxuxnxxlj_2000222111100'
p131
(lp132
(I7
I1
tp133
a(F1.5443635158696447
F0.5423466526801483
tp134
a(F10.4599709561012
F-1.3053195491940823
tp135
asS'nLvLLLAQQkbfeghliklmlmkmhtirrpktmemimo_1200001122112'
p136
(lp137
(I5
I1
tp138
a(F0.6721780091203554
F-0.2560366733689457
tp139
a(F4.108071906766094
F-0.189386900341809
tp140
asS'nLLLLAAAMkbefgigjiiklmmmxxqhwrqgbxqxbw_1022101112001'
p141
(lp142
(I11
I0
tp143
a(F0.7940478227023818
F-0.1300995811489362
tp144
a(F7.180822304536197
F-0.7001785171455165
tp145
asS'nLLvvAMQQkbejiikmlljmklmhhccvjtmpfmcip_1200112211122'
p146
(lp147
(I12
I2
tp148
a(F0.7252502530619178
F0.31897633007447623
tp149
a(F6.621384245256989
F3.062867611452649
tp150
asS'nLLLLzMQPkbefgjiklkllmmmxxqhxopiithrbo_1022101110122'
p151
(lp152
(I4
I1
tp153
a(F-0.7319870571768311
F1.5655382040417567
tp154
a(F16.223336591583355
F2.509042314280565
tp155
asS'nLvLLAPQPkcfgijjkklklmmmllqrogpueliqaf_1200001111112'
p156
(lp157
(I2
I3
tp158
a(F1.0433250237062928
F0.25462174731907417
tp159
a(F9.86746856996429
F2.30854431246761
tp160
asS'nLLLwAPLQkcdgffikijmmllmqgqagqqponkrgg_2101222201011'
p161
(lp162
(I11
I3
tp163
a(F1.7692206125080887
F0.342224640129423
tp164
a(F10.460378475879573
F1.696731119676542
tp165
asS'nLLLLLQAMkbefgjihjjklmmmxxqhdogxqxxqti_1022101112200'
p166
(lp167
(I4
I1
tp168
a(F0.8581884428180026
F1.477760253702304
tp169
a(F8.326143574821613
F1.5769436219696318
tp170
asS'nLLvQLMPPkbeghfijklkkmmmhhaaaaahhwwaxq_1200111100221'
p171
(lp172
(I0
I2
tp173
a(F0.31607252275431136
F0.20889875443013994
tp174
a(F9.464166679893253
F2.1864827884287834
tp175
asS'nvLLAzLQQkeefehklmlkmlmkcvicgheiqxxxxq_0111122022111'
p176
(lp177
(I7
I2
tp178
a(F-0.17664136720769166
F0.3941859237239075
tp179
a(F8.570168172132552
F-1.4714195678083308
tp180
asS'mLLvQLwQQbehgfijklkllkxxelxddlurvvr_102210102220'
p181
(lp182
(I1
I2
tp183
a(F0.674350127544954
F0.09880664419442406
tp184
a(F6.181180119223751
F-0.5788670726053742
tp185
asS'nLLLwMwPQkcdgffjhmkllmlmqgqagarbrbwwgg_2101222211100'
p186
(lp187
(I10
I1
tp188
a(F0.34125445525524184
F0.09481490572170356
tp189
a(F8.009795911999731
F0.25927492994102885
tp190
asS'nLLLMvPQPkbefghijklkmkmmhhihupptigagpt_1200112200201'
p191
(lp192
(I2
I3
tp193
a(F0.9056093929717224
F0.39156838665903343
tp194
a(F15.144719885053354
F2.338582917274137
tp195
asS'nLLvQzLPQkbeghfilmjkmlmlxxaxxxxxknvkvn_1022101002201'
p196
(lp197
(I6
I1
tp198
a(F0.465412272323622
F0.07187885040488358
tp199
a(F4.796420229488892
F0.5718873631595952
tp200
asS'nLLLvLAQQkbcghiimkmljklmtsdcsrquaqwjsf_2010222121010'
p201
(lp202
(I11
I0
tp203
a(F0.4786566940103663
F0.6724778051944942
tp204
a(F13.026166358072537
F-1.4521435678792272
tp205
asS'mLLvzAPQQbehhjklhkkljlxxawwxagmdhgh_102211111102'
p206
(lp207
(I5
I2
tp208
a(F0.5255009335637421
F0.5344518405979745
tp209
a(F3.3511551887650968
F0.9512381653973104
tp210
asS'mLLLLMPPQbcghiikhlklkltsdojotfdxksn_201022212101'
p211
(lp212
(I9
I0
tp213
a(F0.6967315368395575
F0.6850935213721661
tp214
a(F15.550546396515761
F-1.7496334178851418
tp215
asS'nLLLLPMLQkbegfjigikllmmmxxmxxowjmwgjsg_1022101100222'
p216
(lp217
(I3
I1
tp218
a(F0.2327434283368845
F-0.041463219948798896
tp219
a(F13.026272376800481
F-0.5463224719027818
tp220
asS'nLLLLMMAMkbegfhigijklmmmxxmxwowjxmqqfo_1022101102200'
p221
(lp222
(I3
I1
tp223
a(F0.440741355852394
F0.17212738105800557
tp224
a(F12.895599326752865
F-0.6920875149332903
tp225
asS'lLLvPMMQccdhigjiikjkkhshvbajvqqaf_10001211200'
p226
(lp227
(I0
I3
tp228
a(F3.4113626620005113
F0.7545365175632878
tp229
a(F14.84303615553699
F-2.3070010916904953
tp230
asS'nvLLvwQQQkefihmmjkkjlmllfthgkcrwvnsfff_2011022022211'
p231
(lp232
(I0
I0
tp233
a(F0.39219766664511874
F-0.15130075192527156
tp234
a(F8.050541700127336
F-1.8551610410938117
tp235
asS'mvLALLPQQcdfhjkijlkkllffalnksoegstq_022220011001'
p236
(lp237
(I1
I1
tp238
a(F0.9674325732504336
F1.1395503950972155
tp239
a(F8.86407409966361
F2.547706415349022
tp240
asS'lLvLLPQQccegjjgkijikkhttrsvdvwceh_20102110221'
p241
(lp242
(I9
I3
tp243
a(F0.527552652335325
F-0.33333729927181727
tp244
a(F7.540081173559441
F2.8359714501991045
tp245
asS'lLvvAAQQcbgighkijjjkkhxagjhjgcctp_12000011111'
p246
(lp247
(I0
I0
tp248
a(F0.5379235141331886
F0.5826790873085181
tp249
a(F10.841869517407432
F1.922616333837363
tp250
asS'nLLLAvPQMkcdefgjkilklmmmqgmatmrwjgsxxm_2101221110022'
p251
(lp252
(I9
I1
tp253
a(F4.445795434556119
F1.9819653535655442
tp254
a(F33.13025955766504
F1.8376791246585644
tp255
asS'mLLLMLzQQcdefghkllljkkhftagfqhsoobr_201022020021'
p256
(lp257
(I10
I1
tp258
a(F0.6377515308415933
F0.23272780143879818
tp259
a(F10.848161089676085
F2.685499897585738
tp260
asS'nLvLLAMAQkbghihikkjmllmmxqhnvvaeoaqhnv_1022220111002'
p261
(lp262
(I1
I2
tp263
a(F1.3749086101852892
F0.33358918815663424
tp264
a(F9.389591542848903
F-0.44857337425740956
tp265
asS'mLvLLMMQQcehfhjlklkjlktilbbjumhtfai_011220220111'
p266
(lp267
(I3
I1
tp268
a(F0.35179541543900156
F0.02555386798610464
tp269
a(F17.88558423760413
F0.6329196450290709
tp270
asS'nLLLLwQQzkbdefhihjikklmmdwignjjqbpkaqj_2101021220020'
p271
(lp272
(I12
I0
tp273
a(F-0.13801639403202387
F1.3861372223762987
tp274
a(F40.01892804302989
F2.0864878425422524
tp275
asS'lLLLLwQQcbegfhgjkjikkxxmxwwqhxsxr_10221011022'
p276
(lp277
(I10
I0
tp278
a(F0.5518479111401002
F0.20479737298080725
tp279
a(F11.641738270753558
F0.8800012186330017
tp280
asS'nLvLwPzQQkcggihiijlmklmmqdagcgbjuhqjjf_2101222122000'
p281
(lp282
(I6
I2
tp283
a(F-0.012024542667017546
F-0.258717066225314
tp284
a(F6.360287502339929
F-2.98918532253042
tp285
asS'nLLLMLzQMkcdefghkllljmmmhftagfqhsooxud_2010220200211'
p286
(lp287
(I12
I1
tp288
a(F0.021807666233340604
F0.5811231591280033
tp289
a(F13.20877007604413
F1.100724512284888
tp290
asS'nLLLLzMPQkbeggjjiilmklmmhhquhtovxagvcc_1200112112000'
p291
(lp292
(I3
I3
tp293
a(F0.24520246929731884
F0.7406812312230513
tp294
a(F8.88313236075871
F0.12917622075776558
tp295
asS'nvLALMvQQkecfghimilkmllmccaxmjasxmhxnc_0111100002211'
p296
(lp297
(I3
I0
tp298
a(F0.18636391532769309
F-0.16207661725003672
tp299
a(F8.160782551599658
F0.5053650607245591
tp300
asS'lLLLAAMPccdffgfhijkkkqgdatgqhqhkc_21012210221'
p301
(lp302
(I3
I0
tp303
a(F0.06802967516847223
F1.2094093809992856
tp304
a(F8.404613718065384
F1.0908292388474468
tp305
asS'lLvLAAMQcaeefgijkjkkjnxvvvhamhdcn_10012212002'
p306
(lp307
(I4
I2
tp308
a(F0.7022090879522315
F0.2911003162943091
tp309
a(F9.733647506809259
F0.31547718249626444
tp310
asS'nvLLvwQQQkefihllkikjmlmmfthgnvrwvnffsf_2011022022211'
p311
(lp312
(I2
I1
tp313
a(F0.444416282995175
F0.0615376299005938
tp314
a(F10.082039070175082
F-0.10409255856823742
tp315
asS'lLLLALPQccdgfejkijjkkhfhaqhhfosfj_20102220011'
p316
(lp317
(I2
I1
tp318
a(F-0.27598661111050954
F0.572724781821492
tp319
a(F17.329169368026673
F2.3106363249774566
tp320
asS'mLLLwLPQQcdgfjhkillkklqgqalrxuqrggg_210122221110'
p321
(lp322
(I2
I0
tp323
a(F1.049493988173314
F0.24078628076884986
tp324
a(F10.606579376032888
F-1.501227146217188
tp325
asS'nvLLwwQPQkefghjkilkmkmlmcaetvbvjgececq_0111122200220'
p326
(lp327
(I4
I0
tp328
a(F0.8367435870511707
F0.1789864581060538
tp329
a(F11.941157248532521
F2.8081415212622725
tp330
asS'nLLLMPvQMkbeffgihljjkmmmxxqphxoxrbbqti_1022101102200'
p331
(lp332
(I5
I0
tp333
a(F0.18210181581545612
F0.5443182649562445
tp334
a(F6.9000449352480855
F-1.9110909997431211
tp335
asS'mvLLLLQQQegijihkklljlkcqxdcrnngrkkc_011112220002'
p336
(lp337
(I5
I0
tp338
a(F0.28993686055042156
F0.3033568081686882
tp339
a(F7.579659437955927
F-2.699747682107289
tp340
asS'nvLLLALQQkefghilmkjklmkmghaheqqwsfmurc_1222211000100'
p341
(lp342
(I12
I0
tp343
a(F0.8045400764938547
F-0.3229971540184342
tp344
a(F7.279986307665242
F-1.1264032181032653
tp345
asS'mLLvLPPQQbefjgkiijlkllhhavkxkkfmxpk_120011221102'
p346
(lp347
(I4
I2
tp348
a(F0.37786873156770107
F0.03199996772863446
tp349
a(F6.469420121620409
F0.34443134883562887
tp350
asS'nvLLLLAQQkdgfjlkjilmkjmmwahprscbbtgwap_0222210110011'
p351
(lp352
(I2
I1
tp353
a(F-0.4583290852665741
F-1.9023861019439934
tp354
a(F19.057018867704965
F-0.41144616575913834
tp355
asS'mLLLLvQQQbefgikjljljklxxqhoqxlqdxxf_102210111221'
p356
(lp357
(I0
I0
tp358
a(F0.4519068936938672
F0.7885480119023225
tp359
a(F11.377128915704034
F0.012387038951001931
tp360
asS'mLLLzLMQQcdehjijikklllhftxhheexaggr_201022011101'
p361
(lp362
(I2
I1
tp363
a(F0.39718979042515923
F0.290618009393529
tp364
a(F6.383061883412626
F0.2834597693626094
tp365
asS'nLLLALPAMkcdgfejkijjlmmmhfhaqhhfosxhjf_2010222001112'
p366
(lp367
(I6
I0
tp368
a(F0.35300963997569185
F-0.20226191780294822
tp369
a(F11.304275787780398
F3.0415534235988466
tp370
asS'nLLLALQLMkcdefgihjilklmmqgmatmemkqqfhw_2101221110221'
p371
(lp372
(I11
I3
tp373
a(F0.08533188577308239
F-0.6235668386619138
tp374
a(F14.310441313655188
F-0.6593093492976236
tp375
asS'nLLLLLzQQkacfhkkjmmljmlljkghtdlcorsgfs_2002121010000'
p376
(lp377
(I1
I1
tp378
a(F0.49854991741371446
F1.145559144433237
tp379
a(F13.213295709709323
F3.0050440134230234
tp380
asS'mLLLzLPQQcdghhijjkklllhfhxvhteibbrn_201022211011'
p381
(lp382
(I11
I0
tp383
a(F1.2953652383788026
F0.013299196877536782
tp384
a(F8.677204550865621
F1.313104896042011
tp385
asS'nLLvzPLQQkbehkilmmmkljlkxxaxbaitalhghl_1022111111022'
p386
(lp387
(I8
I1
tp388
a(F0.36707697788264304
F0.2770781571470769
tp389
a(F3.6790009290227057
F0.40099083851143585
tp390
asS'nLLLzMzPQkcdghghijklmlmmhfhxfvhbbbowfn_2010222111102'
p391
(lp392
(I5
I2
tp393
a(F1.2673940307076852
F0.612305323816191
tp394
a(F10.267586681230158
F2.6442829865603352
tp395
asS'mLLLALPPQcdgfejkilkkllhfhaqhhfxfjip_201022200111'
p396
(lp397
(I2
I1
tp398
a(F-0.4221825785461413
F0.42238930877347586
tp399
a(F19.170209191601547
F2.2599330721974833
tp400
asS'jLLLwQQcdefhgihiihftarchweq_201022021'
p401
(lp402
(I8
I2
tp403
a(F0.5321008906494932
F0.6834630568672743
tp404
a(F6.045348291876205
F1.3046085452025398
tp405
asS'lLLLLQLQcbcefihhijjkktsuwjckoulws_20102221210'
p406
(lp407
(I8
I3
tp408
a(F0.27721907225556885
F1.2838847920916359
tp409
a(F15.031494996798182
F0.16703491961333197
tp410
asS'nLLLLLPQMkbcfhgkjiijlmmmtshbfhqsrtjxqh_2010222220110'
p411
(lp412
(I8
I2
tp413
a(F0.2716840908663355
F0.1303125965166217
tp414
a(F8.195961485171491
F-2.808172443465621
tp415
asS'mvLALvQQQecfgihikjlkllccaxsvvkkxbdm_011110000222'
p416
(lp417
(I0
I1
tp418
a(F0.19658051372304838
F0.3151650970910314
tp419
a(F6.512525198448181
F-0.8583862854104071
tp420
asS'nLvLvAPQQkcfhjjkmliklkmmllgwggexvvxglc_1200001111121'
p421
(lp422
(I12
I1
tp423
a(F-0.5132595243201868
F0.41253214559018203
tp424
a(F8.983970622133434
F-0.8368441928909255
tp425
asS'mLLvALAQQbefhjiijlkkllhhxaaccuquavk_120011111002'
p426
(lp427
(I1
I1
tp428
a(F0.7599375497595122
F0.6472730087395151
tp429
a(F7.08078308671423
F-3.0268809605477003
tp430
asS'lLLLLzQQcbefgjihkkijkxxqhxogpibub_10221011101'
p431
(lp432
(I0
I0
tp433
a(F0.49762651854816936
F0.10307153532918766
tp434
a(F6.678963154676232
F-0.40290111842813664
tp435
asS'nvLLvQAMQkdgghkhjlkljmmmslaqagsxkmndlg_2000022212211'
p436
(lp437
(I1
I0
tp438
a(F-4.879327058620007
F1.8005513375015356
tp439
a(F39.74674250069339
F1.9684102518240383
tp440
asS'mLLLAwPQPcegfggiijkkllqqqaqoidicsaw_122201111221'
p441
(lp442
(I6
I2
tp443
a(F-0.3792837444893561
F-0.257774745302339
tp444
a(F11.071615501010056
F-2.9946632617594915
tp445
asS'mLLLLQLQPbcefihhijjklltsuwjckoulwqj_201022212102'
p446
(lp447
(I6
I3
tp448
a(F1.1745940761022373
F1.4662410472507261
tp449
a(F17.058804347938278
F-0.524891906649421
tp450
asS'mLLLMLMPQcdefgjikiklllhftaghtmqgfsw_201022020110'
p451
(lp452
(I3
I1
tp453
a(F0.09169261601926623
F0.4546948820707397
tp454
a(F6.818244009029107
F-0.6849683398795299
tp455
asS'lLLLwAQMccdgfgfhjijkkhfhafwsddwan_20102222110'
p456
(lp457
(I6
I2
tp458
a(F0.45676709747256644
F0.12699173494805857
tp459
a(F8.938704407931645
F1.065093833402797
tp460
asS'nLLLMvPPQkcdefgljkkjlmmmhftagqxxjjkffc_2010220201120'
p461
(lp462
(I5
I1
tp463
a(F0.3109498275564081
F0.2566799259436506
tp464
a(F6.547458297748385
F1.8819948343298245
tp465
asS'nvvLAALQQkfgifilkimjklmmaapptffgakffpp_0112220220111'
p466
(lp467
(I2
I3
tp468
a(F1.341310042641447
F0.9294878491222673
tp469
a(F12.348945063303644
F-1.934950986293326
tp470
asS'nvLLLLQPQkegfhhilkmjkmlmreeagrnbagotwq_1202001120010'
p471
(lp472
(I2
I1
tp473
a(F-0.6908913955533177
F0.492693973183155
tp474
a(F15.123630651369346
F-1.2898139088507707
tp475
asS'nLLLLzMPQkbegfjgklikmmlmxxmxxwhhsxwggb_1022101100222'
p476
(lp477
(I10
I0
tp478
a(F0.5756109940504422
F0.25355853088078023
tp479
a(F12.657900685478712
F0.8368897797471365
tp480
asS'mLLLLzAQQbefgjihkijlllxxqhxogibuvkv_102210111012'
p481
(lp482
(I1
I3
tp483
a(F0.5245582885208231
F-0.22798809233044998
tp484
a(F5.671670793813574
F-1.3814465944725698
tp485
asS'nLvLzMMMQkbehhkgjljmkmlmxpqvdrrivhdhbc_1022220111102'
p486
(lp487
(I4
I0
tp488
a(F0.7389394777728755
F0.2987320096938405
tp489
a(F7.682499836105199
F2.782403635602437
tp490
asS'mvLLLwQQQefgihkkhljlklftxhgnvcrgffs_201102202211'
p491
(lp492
(I8
I1
tp493
a(F0.7288481779429984
F0.6307805902107511
tp494
a(F8.844165049293933
F2.5636270927335345
tp495
asS'lLLLPvQQcccgfhhkjikjklnhqbniehrgf_12001111222'
p496
(lp497
(I0
I3
tp498
a(F0.297164211620095
F0.9915452163697122
tp499
a(F15.757798680819754
F2.868022382050161
tp500
asS'nLLLLMAPMkbcfhigjjjklmmmtshbjfhhxqahxq_2010222221002'
p501
(lp502
(I12
I2
tp503
a(F0.669839304168179
F0.38136451372986563
tp504
a(F5.385935051416875
F1.13050925373454
tp505
asS'nLLwLwMQPkacdfhikijllmlmjkacqsokfhxaan_2002110000021'
p506
(lp507
(I2
I2
tp508
a(F0.5882708219917131
F0.39397096047295443
tp509
a(F19.38663533299512
F1.0608317797592
tp510
asS'lLLLPLMQcbcgefjhkikjktsdawqfdlgjo_20102221101'
p511
(lp512
(I4
I0
tp513
a(F0.9874115443672801
F0.23831821851715446
tp514
a(F7.580142905131635
F-0.9017624729704756
tp515
asS'nLALLLMLQkcbbegijikmklmmqqjnahhtwjkfsk_0220012120000'
p516
(lp517
(I4
I3
tp518
a(F-0.4662944436770409
F0.41343391270194463
tp519
a(F5.858623195475692
F1.4192085860994585
tp520
asS'mvLALLPQQcdfigliijklklffadfawbwrxgx_022220011112'
p521
(lp522
(I10
I2
tp523
a(F0.4833882186799175
F-0.0918241142316609
tp524
a(F5.079702016122756
F1.5546971659265119
tp525
asS'nLvLLLMQQkcegjkiklmijmlmhttslvdhewfpbw_2010211022110'
p526
(lp527
(I11
I1
tp528
a(F-0.006181218028545114
F0.7133845754183973
tp529
a(F10.573290655256066
F0.13052898739518676
tp530
asS'nLLLLPALQkbeggfjhimkklmmhhquvacohjsvnv_1200112110002'
p531
(lp532
(I8
I3
tp533
a(F0.21198697308761316
F0.49431545365479496
tp534
a(F13.507503106886315
F0.3194804171639151
tp535
asS'nLLvzLPQQkcdhkijlklmmkjmhshigxqxqdhirf_1000121122201'
p536
(lp537
(I6
I2
tp538
a(F0.13164765055727984
F-1.4321317068216703
tp539
a(F10.836460003547893
F2.3388247867690213
tp540
asS'mLLLLMLQQbcghiihjjllkltsdojofqmdbsw_201022212101'
p541
(lp542
(I10
I1
tp543
a(F0.14720282410050428
F0.8706537957210659
tp544
a(F29.13057314710124
F1.4920860370259503
tp545
asS'mLLLLPwQQbefgjhhillkklxxqhxbwbtirbb_102210111022'
p546
(lp547
(I2
I2
tp548
a(F-0.09924869359752467
F0.6097648084767202
tp549
a(F4.89845546967607
F-2.993759972842952
tp550
asS'nLLLLzMAQkbegfjgkjlkmllmxxmxxwhlhxqngj_1022101100222'
p551
(lp552
(I7
I2
tp553
a(F0.31785308601935147
F-0.31011198591492095
tp554
a(F14.742526322947636
F-2.1651751590056167
tp555
asS'nLvLAAPzQkbfgfghkijlmlmmhtxtgjicpfowgw_1200001111222'
p556
(lp557
(I4
I3
tp558
a(F0.7375629338366344
F1.8786361114232637
tp559
a(F12.670837835462818
F-0.11395164149451524
tp560
asS'nLLLLzAQMkbefgjihkijlmmmxxqhxogibuvhtp_1022101110122'
p561
(lp562
(I1
I3
tp563
a(F0.4366648235942479
F-0.22827470976199077
tp564
a(F5.162689936185776
F-1.5145203649355101
tp565
asS'nLLLvAAMQkacfijkklimlklmjkgtmmilwqssjj_2002121010102'
p566
(lp567
(I6
I0
tp568
a(F1.0683712036350488
F0.2679229803199815
tp569
a(F11.929610506739907
F-1.403110443071867
tp570
asS'lLLLAMAMccdefgfhiijkkhftadwaawaxn_20102201101'
p571
(lp572
(I8
I0
tp573
a(F0.5262051860353683
F-0.12579729126943956
tp574
a(F12.348407066834524
F-2.8093405772838844
tp575
asS'nLLLLMPAAkccefhijhkkklmmlnpbkrpjexbrhw_1200111212021'
p576
(lp577
(I6
I0
tp578
a(F-0.5587157622986701
F0.6172930836971516
tp579
a(F14.724360926626558
F-0.9747586300971092
tp580
asS'mvLAAvPQQecfgfijilkkllccaxlvwrmddlj_011110022222'
p581
(lp582
(I11
I1
tp583
a(F0.7311630859307403
F0.30968110364510604
tp584
a(F3.7077655544091157
F2.4121200591641823
tp585
asS'nLLvAPPLQkbefhjgijklmlmmhhxahvctmhjkrb_1200111112022'
p586
(lp587
(I1
I2
tp588
a(F0.7299533510307185
F0.38606044112340787
tp589
a(F6.894834680830314
F-2.752267474998832
tp590
asS'jLLLLQQbegfhihihihhqakkkkoo_120011211'
p591
(lp592
(I3
I1
tp593
a(F1.2080728010511605
F-0.6272388836589677
tp594
a(F5.378957628395167
F2.7159219755327477
tp595
asS'nLLLLLwQQkbegfjkilmilmmlxxmxddwhxsrvvr_1022101102220'
p596
(lp597
(I8
I2
tp598
a(F0.6730274409804619
F0.440757085403764
tp599
a(F9.817521132492098
F2.3027148149802454
tp600
asS'nLLLvLQQPkbcghiihlklmklmtsdcsrfauqhjsr_2010222121012'
p601
(lp602
(I5
I2
tp603
a(F0.48040114228522907
F0.036199023777769596
tp604
a(F4.758540127763897
F0.6592518822100247
tp605
asS'nLLzzLzQQkcdeghijmlkmllmhsahoaxavkokfv_1000121200000'
p606
(lp607
(I5
I0
tp608
a(F0.6437151205132653
F-0.017881871418383453
tp609
a(F7.793239859221193
F-0.5546045483474578
tp610
asS'mLvLAwPQQcfheihikjllklqdtdwgveehnnf_210102012200'
p611
(lp612
(I10
I1
tp613
a(F-0.13970230039165446
F-0.150074983839937
tp614
a(F11.075273843207604
F-1.1570324918333086
tp615
asS'lLLLMwQMcbdgfhgiijikkdwxxbjutxdhr_21010212112'
p616
(lp617
(I6
I3
tp618
a(F0.05655062591139457
F0.22360478921221977
tp619
a(F6.879010721813422
F-1.4953305202012395
tp620
asS'nLLLMLzAQkcdefghkljkmkmmhftagfqhokqcqx_2010220200212'
p621
(lp622
(I12
I2
tp623
a(F0.10871295175143586
F0.04675862778752685
tp624
a(F3.700396178696708
F-1.682945016189792
tp625
asS'mLLLLzMQQbefgjiklkljlkxxqhxopiituhb_102210111012'
p626
(lp627
(I4
I1
tp628
a(F0.12019715014896448
F1.1358886754431798
tp629
a(F11.387333249342761
F2.458147395443068
tp630
asS'nLvLwLAQQkcgghhlikmlmlkmqdacfabdhhmhqr_2101222122011'
p631
(lp632
(I4
I0
tp633
a(F0.7451109241624848
F0.0028813435466785334
tp634
a(F17.469936749574913
F-2.069576646874342
tp635
asS'nLLLLvQPQkbefglkjjkjkmmmxxqhqqxqxxxhsj_1022101112222'
p636
(lp637
(I6
I1
tp638
a(F-0.06711971543552481
F0.1562171194093478
tp639
a(F7.782192478721083
F1.179491350774156
tp640
asS'mLLvzAPQQbehfhlkkijllkxxarraepbbhhh_102211111122'
p641
(lp642
(I3
I0
tp643
a(F0.47494632599910397
F0.09200441637312369
tp644
a(F5.4222229758655525
F-2.598632431262138
tp645
asS'kLLLzMQkbcfghgjjijitshxffhhxxw_2010222211'
p646
(lp647
(I7
I2
tp648
a(F0.7595955225807042
F-0.24537178253018316
tp649
a(F5.839285787847367
F0.6832426242727284
tp650
asS'mLLLLAAAQacfighjjkjllljkglwmmicsxdu_200212101100'
p651
(lp652
(I3
I1
tp653
a(F0.2965403591860035
F0.031537175530843536
tp654
a(F7.018559501835319
F-2.4815313677212334
tp655
asS'mLLLMvMQQcdgfhklljjkklqgqabqqthgwgs_210122221100'
p656
(lp657
(I0
I3
tp658
a(F0.9222539948745275
F0.048339514538145806
tp659
a(F4.403317635463706
F1.7732293473598404
tp660
asS'nLvLvAPQQkbegjhmkikljmlmhignruvkwufqec_1200001122111'
p661
(lp662
(I2
I1
tp663
a(F1.5903946963549755
F0.7841625245776902
tp664
a(F9.290940148021784
F-0.7984936318299083
tp665
asS'nLLLLPzQMkbeggfjiiklkmmmhhquvaovxavaie_1200112110001'
p666
(lp667
(I8
I3
tp668
a(F-0.3211435398041958
F0.5735526565862736
tp669
a(F18.000830588157726
F1.894380642070236
tp670
asS'nLLvAzAAQkbefhjiiklmkmlmhhxahccuqpgjvw_1200111112022'
p671
(lp672
(I1
I1
tp673
a(F0.6497744883669723
F0.5285310521952802
tp674
a(F5.978732894348146
F-2.7798162032518774
tp675
asS'nLLLvLQPQkacfllljjkmkmkmjkgtqdxvnnwkgg_2002121010002'
p676
(lp677
(I7
I2
tp678
a(F0.7248781622693895
F0.8838879497670562
tp679
a(F10.32812421404776
F-2.9705884998896037
tp680
asS'nvLLMLwQQkegffiklimjlmmlreueerxbxfllaa_1202001100122'
p681
(lp682
(I3
I3
tp683
a(F1.1319189454409853
F0.21181030664978712
tp684
a(F10.253899981240012
F2.8937929804041516
tp685
asS'nLvvLLQQQkcehkjihmljkmlmqqfgkrrlewfumf_2101020110222'
p686
(lp687
(I11
I3
tp688
a(F-0.11303015675238831
F0.8938016726592072
tp689
a(F6.648164471111764
F-2.8099734915719927
tp690
asS'kvLAALQkecfgfhijjijccaxlvnnwrb_0111100222'
p691
(lp692
(I6
I1
tp693
a(F0.19815932265764594
F0.42505239310117277
tp694
a(F6.934778969850778
F-1.6028234312108482
tp695
asS'lLLLwLQQcbdgfjhhijjkkdwxxujkemkkj_21010212122'
p696
(lp697
(I9
I2
tp698
a(F0.6162959303443201
F0.1672004893934267
tp699
a(F12.78685198126581
F-0.4087740054894976
tp700
asS'nLLLwMMMMkcdefihijjklmmmhftahfaiavfhum_2010220210102'
p701
(lp702
(I0
I0
tp703
a(F0.3354045986245484
F0.28197388256082495
tp704
a(F5.723058357009812
F-3.1209460043310644
tp705
asS'nLLvvPAQQkbelgiljljmmkkmxxxbgusufhiwfq_1022111110002'
p706
(lp707
(I1
I3
tp708
a(F1.0451571065174914
F0.2209619266078675
tp709
a(F5.430673487339863
F-0.5683154679667127
tp710
asS'lLLLLzQQcbefgiihjkikkxxqhrogxibkc_10221011121'
p711
(lp712
(I0
I0
tp713
a(F0.6319859736903772
F0.3246380702292844
tp714
a(F7.945944077074485
F-0.4048431913486341
tp715
asS'nLLLLzQPAkbcegjihjkklkmmtsxotgbqqaafqj_2010222220102'
p716
(lp717
(I9
I3
tp718
a(F-0.20661410631944815
F0.8226163662563241
tp719
a(F12.562047763049618
F-2.3290078426221124
tp720
asS'nLvvALAQQkcegihjlkmmlkmlpqdvjfaaimxudw_1022111010200'
p721
(lp722
(I1
I1
tp723
a(F0.7351296930186173
F0.4314097223045723
tp724
a(F11.743969062495028
F2.2873163838350683
tp725
asS'nLLvQLMPPkbeghfijklkkmmmhhhhaaahhrwhqx_1200112200112'
p726
(lp727
(I5
I3
tp728
a(F0.29682070817173173
F1.675138189418524
tp729
a(F12.32229837945661
F1.4448538560463327
tp730
asS'nLLLwMMAPkcdgfgjhjkkllmmhfhafmfmhgaxwn_2010222211020'
p731
(lp732
(I2
I0
tp733
a(F-0.31314422718701046
F0.4829986918337463
tp734
a(F8.911982764551789
F-1.536586863313524
tp735
asS'nLLvAPPAMkbefhjiikkklmmmxxhaxbbitaaxlm_1022111110221'
p736
(lp737
(I3
I3
tp738
a(F0.5310366618915853
F0.26941994576363304
tp739
a(F4.001069013355877
F2.5148900623183765
tp740
asS'nLLLMLMMPkcdgfhiikkjmlmmqgqablmqtgxfqh_2101222211010'
p741
(lp742
(I2
I0
tp743
a(F1.0968861243163883
F0.605044382232352
tp744
a(F15.005107131585435
F-2.3940517842641964
tp745
asS'nLLLvPAQMkcdfgkhjlkllmmmhslkibaliihgrg_1000121212222'
p746
(lp747
(I0
I3
tp748
a(F2.1878982982510666
F1.065253832094136
tp749
a(F21.489944284067825
F-1.671586697623527
tp750
asS'mLLLzQLAQcdghgfhkkjlklhfhxfwvdgwagn_201022211100'
p751
(lp752
(I3
I3
tp753
a(F0.6391984107817603
F0.33979131592501494
tp754
a(F10.396824037548328
F2.7668961171041424
tp755
asS'nLLvQzLAQkbeghfiljkmmllmhhaaahhxxhawwa_1200111120021'
p756
(lp757
(I4
I0
tp758
a(F0.13153572296931934
F-0.23880927804240903
tp759
a(F9.212273168240623
F0.46836347340181883
tp760
asS'nLLLMPLMPkbeffgihkklmkmmxxqphxotixqbrb_1022101102210'
p761
(lp762
(I0
I2
tp763
a(F0.8250770534446104
F-0.48762747233518805
tp764
a(F3.797953987781849
F-0.10202244444340564
tp765
asS'mLLLMLAAQcdefghijkjlllhftagftihoqqx_201022020012'
p766
(lp767
(I11
I1
tp768
a(F-0.15629097507553152
F0.23079921489260316
tp769
a(F3.447486093571876
F-2.046799428272607
tp770
asS'kLLLMPMkbeffgghijjjxxqphroxxwb_1022101120'
p771
(lp772
(I5
I0
tp773
a(F0.17832583560881088
F0.5841126555164664
tp774
a(F6.757838950247561
F-1.8935859813308518
tp775
asS'nLLLLzAMQkacfihkkjjllmmmjkglmmiqcrbmhm_2002121012102'
p776
(lp777
(I8
I1
tp778
a(F0.18630228990297498
F0.8599484422109542
tp779
a(F8.514150766808557
F0.601660363281424
tp780
asS'nvLLAvPQQkeegekhmlklmkmlcvechbeixxxqxq_0111122022111'
p781
(lp782
(I5
I0
tp783
a(F0.41478122336395484
F0.7029425292045041
tp784
a(F4.8395923571526005
F2.6967400814181564
tp785
asS'nLLLzLwQQkcdehjiikkljlmmhftxhhexagwrnj_2010220111012'
p786
(lp787
(I5
I3
tp788
a(F0.1362032404997744
F0.1672514884675162
tp789
a(F9.323184031681354
F0.7918111246707576
tp790
asS'mLLLMPMzQbeffgghijklllxxqphroxxqxbw_102210112001'
p791
(lp792
(I3
I0
tp793
a(F0.7980189842676114
F-0.03936732370463684
tp794
a(F8.036298746049667
F-2.9774929926639038
tp795
asS'lLvvQAPQccfgehikjjkkjqtuqbbteqddq_21010201101'
p796
(lp797
(I5
I2
tp798
a(F0.529287158637084
F-0.07005721507308725
tp799
a(F3.7869161426581526
F2.4528934165211296
tp800
asS'nLvLPvQPQkcefgihjimkllmmhthtksdjebssgf_2010211011101'
p801
(lp802
(I4
I1
tp803
a(F0.37080314893138794
F0.21219019234191375
tp804
a(F8.494348202116884
F-2.9907320800331014
tp805
asS'mLvAwLAQQcfefghkilkljlumuibfxwqpjkf_022111102021'
p806
(lp807
(I0
I3
tp808
a(F0.8791390422361063
F-0.07841122444989916
tp809
a(F9.398358359319136
F2.81272278396593
tp810
asS'mvLAAzMPQecfgfhjikllklccaxlqhrlqvsk_011110022221'
p811
(lp812
(I9
I3
tp813
a(F0.5466639276933719
F0.41904970170520045
tp814
a(F3.101829064282667
F2.557676147007378
tp815
asS'mLLLwLQQPcdgfhjkkkijllqgqasmmlxmkar_210122221112'
p816
(lp817
(I5
I3
tp818
a(F-0.013658023055549582
F-0.3881032813239762
tp819
a(F8.695870764375371
F-0.9012525332600904
tp820
asS'nLLLLMPPPkbcghiikhlkkmmmtsdojotfdxsxqh_2010222121010'
p821
(lp822
(I12
I2
tp823
a(F-0.00020004252017781588
F0.30180322017124794
tp824
a(F20.111633043673876
F1.4472005503603824
tp825
asS'nvLLLLQAQkegfjhjlkkljmmmgeeigrvgonklah_2100100211220'
p826
(lp827
(I12
I0
tp828
a(F0.7422915067609256
F0.15324825700234385
tp829
a(F15.503055229239575
F1.7260542825042537
tp830
asS'mLLLLPPPQbdefhihkjlkllhrugvvkhpxkjs_120001211112'
p831
(lp832
(I7
I0
tp833
a(F0.8035219229863045
F0.20125090730794148
tp834
a(F6.481214817826923
F0.23566411310637866
tp835
asS'nLLwvAPQPkacdgjhjkilllmmjkamefcjjnwvaj_2002110002002'
p836
(lp837
(I11
I0
tp838
a(F0.33846581254897673
F-0.015899462768421437
tp839
a(F11.683080761568212
F2.2134384039597763
tp840
asS'nLLLLLQPPkbcefkjhiljmllmtsuwqefwhqsckw_2010222120021'
p841
(lp842
(I4
I3
tp843
a(F0.8152881220029454
F-0.9350586235718609
tp844
a(F11.655453973313628
F-0.12211663388227292
tp845
asS'nLvLvMMQQkbfkjikijillmmmxukkvrgrgxauuf_1022221110000'
p846
(lp847
(I8
I3
tp848
a(F0.5501960273462774
F0.5246282022646391
tp849
a(F5.095159831039229
F0.3150262035219541
tp850
asS'mLLvQLMAQbeghfijkijlllhhhhaaahqxhqx_120011220012'
p851
(lp852
(I5
I3
tp853
a(F1.331258463627169
F2.226701695099461
tp854
a(F14.75186723281385
F1.4143226692411546
tp855
asS'nLLvLLMQQkbdhjgijklmmkmldwbbwsgllehlbj_2101022222220'
p856
(lp857
(I12
I1
tp858
a(F0.2424264345083783
F0.6615462271349937
tp859
a(F12.723496354310333
F1.3033493926741027
tp860
asS'mLvAwLMQQcfefghjijklllumuibfiwepksj_022111102022'
p861
(lp862
(I0
I3
tp863
a(F0.8147078279452905
F-0.09132704061578338
tp864
a(F12.88087768836134
F2.439969662149677
tp865
asS'nLvLvPPQQkbejilkijilmlmmxlgvprgrgxmiqh_1022221110001'
p866
(lp867
(I3
I3
tp868
a(F-0.10040061667654623
F0.0166024767574235
tp869
a(F6.659492492815975
F-2.209222052686907
tp870
asS'nLLLMLMLQkcdefghijlmkmlmhftagftanxspwq_2010220200101'
p871
(lp872
(I0
I3
tp873
a(F0.08731793508655815
F0.45709553267187186
tp874
a(F3.4424062819287045
F-2.321389078715588
tp875
asS'mLLLLMMQPbegfhhgikjkllxxmxwrwbhhwas_102210110220'
p876
(lp877
(I11
I0
tp878
a(F0.842538281076397
F0.326982395271555
tp879
a(F9.125490127214924
F2.624515522189367
tp880
asS'mLLLLPMMQbdefgiikjkklldwignojpmtbvj_210102122220'
p881
(lp882
(I1
I1
tp883
a(F0.21433947840332224
F0.6308761274161004
tp884
a(F10.056442949310211
F2.138765315207433
tp885
asS'nLLLwzAMQkcdefjihklklmmmhftahawdwnwojw_2010220211110'
p886
(lp887
(I9
I1
tp888
a(F0.10825147261787735
F1.1418394932223355
tp889
a(F11.143517856556217
F1.2419593081112863
tp890
asS'nLLLPLzMQkbcgefjkiljlmmmtsdawqqlsjkofc_2010222110000'
p891
(lp892
(I4
I0
tp893
a(F0.803151201148229
F0.3591765801325883
tp894
a(F7.647395543910408
F-1.036378665365379
tp895
asS'mLLLwLQPQcdgfkihjijlllqgqaxxrxhwwnk_210122220100'
p896
(lp897
(I9
I0
tp898
a(F0.664455007245804
F-0.1081163724596905
tp899
a(F9.879794814954863
F0.6639930086683652
tp900
asS'nLvLLLAQQkbfgjikhklmllmmxexcvxgtxhuuxf_1022220110102'
p901
(lp902
(I5
I0
tp903
a(F0.9015734922488656
F0.9803853173081366
tp904
a(F13.95156457537474
F0.2118412376646862
tp905
asS'nLLLMvPQPkcdefglijkkmkmmhftagqilxjigtp_2010220201122'
p906
(lp907
(I3
I0
tp908
a(F0.25870531901133664
F0.7818873206838108
tp909
a(F15.05591164857455
F-1.8925024850799015
tp910
asS'nLLLMLAAMkcdefghijkjlmmmhftagftihoqhwr_2010220200122'
p911
(lp912
(I12
I3
tp913
a(F-0.3568999445941385
F1.289038521635765
tp914
a(F12.491170169770824
F-2.509920988002372
tp915
asS'lLvLMzQQcbghihkhjjkjkhihukakaattd_12000012222'
p916
(lp917
(I2
I3
tp918
a(F0.6070597532102466
F0.4924888831092572
tp919
a(F10.53683379756742
F2.563424059981809
tp920
asS'mLLwPvAQQacdgfikijlklljkahcnoofqnax_200211000002'
p921
(lp922
(I0
I2
tp923
a(F0.43407693615190596
F0.011942614515564045
tp924
a(F10.551818447568635
F-0.2850638129688592
tp925
asS'nLLLLzAPQkbefgjkjimlllmmxxqhxqubxtivwb_1022101110220'
p926
(lp927
(I10
I2
tp928
a(F0.6660617511775351
F0.7893117410976921
tp929
a(F7.942901012663394
F2.3487379947306066
tp930
asS'mvLALLAQQecfgjkklikljlccaxvvrifnich_100001122112'
p931
(lp932
(I0
I0
tp933
a(F0.35456142758399295
F0.7426166123020712
tp934
a(F13.467327809355275
F1.6009207306547282
tp935
asS'mLvvAAMQQcgehjjkllklkjhaqgooxxtteeg_201022200211'
p936
(lp937
(I1
I2
tp938
a(F0.2747479437169551
F1.8798383748550707
tp939
a(F12.721495413735742
F-2.4685935858341854
tp940
asS'lLLLAPPPccdgfehhjikkkhfhaqiphfxte_20102220011'
p941
(lp942
(I2
I1
tp943
a(F-0.29197135586035716
F0.44058413700765586
tp944
a(F17.481897454894867
F2.3378821899126545
tp945
asS'nLLLwMMLQkcdgfgjikmllmmlhfhafhhqossooo_2010222211000'
p946
(lp947
(I4
I1
tp948
a(F0.1615204686572428
F-0.029360897831823215
tp949
a(F8.059103054463803
F-2.5169497845163353
tp950
asS'kLLLMwQkbdgfhgiijijdwxxbjutxdw_2101021211'
p951
(lp952
(I8
I1
tp953
a(F0.19207121633715607
F0.13228307456484154
tp954
a(F6.398031196049359
F-2.1863345437948283
tp955
asS'nLLvAvPQQkbeghhkjimllmmlhhhhneecxhgnng_1200112210020'
p956
(lp957
(I2
I3
tp958
a(F0.7951714175955342
F0.5948031510274614
tp959
a(F16.695766883143673
F2.2973221824687573
tp960
asS'mLvvAAQPQcgehjjiklkkjlhaqgoovxetegw_201022200211'
p961
(lp962
(I2
I2
tp963
a(F0.14024229942722158
F0.38911177707140165
tp964
a(F8.46696014665051
F-1.3972718431625748
tp965
asS'mvLLLPPQQcdighijljlkklvvpxgcrqcavni_100001111122'
p966
(lp967
(I0
I2
tp968
a(F0.6785729213975729
F0.4809248623882524
tp969
a(F10.962930027201873
F0.5181424344791487
tp970
asS'nvLLLQLAQkcdhijhlkimlkmmvvmtqgeljupqov_0111122022102'
p971
(lp972
(I4
I1
tp973
a(F1.449602847525152
F0.7258506200503341
tp974
a(F6.825283799384103
F1.7240141857012494
tp975
asS'mLLLLLQAQbefgjihjjklllxxqhdogxqxxrg_102210111220'
p976
(lp977
(I4
I1
tp978
a(F0.7124212683377271
F1.3278761423169958
tp979
a(F8.319758508091065
F1.650949870379828
tp980
asS'nLLvwLMQQkcdfhgkkjjklmmmhsaggipexhxgcn_1222011102220'
p981
(lp982
(I9
I0
tp983
a(F0.4071050250691668
F0.29044704262840976
tp984
a(F4.442531167736779
F2.342086058894935
tp985
asS'kLLLPMMkbcgefhihjjjtsdawsqfdbw_2010222101'
p986
(lp987
(I1
I1
tp988
a(F0.42860461728592997
F0.315399547195731
tp989
a(F10.059440292784567
F2.595893162205777
tp990
asS'nLLvLLQQMkcdhlhkjihklmmmhswpgprgnppxkk_1222011110221'
p991
(lp992
(I6
I2
tp993
a(F0.6888714131250325
F0.6527032411641911
tp994
a(F5.256825736297059
F1.644708078499218
tp995
asS'nLvLALQPAkcfghgjikiklkmmllierdwintrfhw_1200001112221'
p996
(lp997
(I4
I3
tp998
a(F0.625993589310344
F0.0004731094220895385
tp999
a(F2.814208502012039
F-1.2079043629805455
tp1000
asS'mvLLLLQQQegghikllkjjklfxxdjfnvgggsf_201102222221'
p1001
(lp1002
(I2
I1
tp1003
a(F0.7715366568259326
F-0.14085481568843417
tp1004
a(F10.232976611559145
F1.3686228271308858
tp1005
asS'nLvLvAMQQkbegjjlhlmkjmlmhignntcttkfeia_1200001122122'
p1006
(lp1007
(I2
I0
tp1008
a(F0.9456613409743128
F0.7721161630277575
tp1009
a(F5.454323781087812
F-0.7987704913699245
tp1010
asS'nvLLALwQQkefgeijlimklmlmcaecwwawecxppp_0111122222010'
p1011
(lp1012
(I11
I3
tp1013
a(F-0.8761137765648543
F1.6263903905480181
tp1014
a(F20.039819892318764
F-1.7991555482066068
tp1015
asS'nLLLMLAMPkcdefghijkllmmmhftagftihxpahk_2010220200112'
p1016
(lp1017
(I12
I3
tp1018
a(F0.044860533686741935
F0.18477969567935482
tp1019
a(F7.275274726272562
F-1.8829674067049151
tp1020
asS'nvvLAAPPQkghhffijmkllkmmmdaaagoaggkkdd_1020212212000'
p1021
(lp1022
(I1
I0
tp1023
a(F-0.3627150509987162
F1.5335323480285639
tp1024
a(F14.473536955836217
F1.4020266086724265
tp1025
asS'nLLvvMMQQkachhllkikjmlmmjklatdxmjrsgsv_2002121101000'
p1026
(lp1027
(I5
I0
tp1028
a(F0.019828350206288013
F0.7140125045675202
tp1029
a(F20.340878347159393
F0.07450608837253504
tp1030
asS'mvLALLAQQcdfgkjiijllklffaqssobwppgt_022220011111'
p1031
(lp1032
(I7
I0
tp1033
a(F0.2989969355981411
F-0.5055745200224925
tp1034
a(F6.49378039781871
F0.6045971529834724
tp1035
asS'mvLLPwPQQegighkilljklkguauannaabgqw_210010022221'
p1036
(lp1037
(I5
I0
tp1038
a(F1.0440026470307926
F0.7831371042976446
tp1039
a(F12.28703708007431
F2.243867197354324
tp1040
asS'mLLLLzQMQacfihkkijjllljkglmmidqcqmh_200212101212'
p1041
(lp1042
(I8
I1
tp1043
a(F0.012173480229723045
F1.1305751246417812
tp1044
a(F11.55255236321341
F1.3180182393589082
tp1045
asS'kLLLLPQkbefgijihjjixxqhrdogxqb_1022101112'
p1046
(lp1047
(I0
I0
tp1048
a(F0.4445843210479272
F0.07208962891354521
tp1049
a(F6.760029478630589
F-0.28019371669516124
tp1050
asS'nLLLLMvQQkbcghiimjmlmlkltsdojoqmadobsw_2010222121010'
p1051
(lp1052
(I10
I0
tp1053
a(F-0.8822356241751782
F0.5993249596773058
tp1054
a(F34.39941095196743
F2.0137341121003907
tp1055
asS'nLAwvALAQkbcbdhihlkllmmmhhwhhacaqtpqbc_2112110020111'
p1056
(lp1057
(I8
I0
tp1058
a(F-0.4055338818309433
F2.618855212517356
tp1059
a(F15.176785336201167
F0.3694672545394898
tp1060
asS'mLLLPMPzQbcgefhijikllltsdawsqqqkqaq_201022210002'
p1061
(lp1062
(I1
I1
tp1063
a(F0.6710616872779379
F0.4298914385538007
tp1064
a(F9.411813081304096
F2.625031878865869
tp1065
asS'mLALLLAPQcbbeghjijklllqqjnavhqvojsk_022001210000'
p1066
(lp1067
(I0
I3
tp1068
a(F0.569134323282211
F0.8297536655324906
tp1069
a(F7.460504536708713
F3.0983266177691133
tp1070
asS'nLvLLAPAQkbghihjkkjllmmmxqhnvnaeoxahnv_1022220111002'
p1071
(lp1072
(I7
I3
tp1073
a(F0.2940828895234127
F0.1322028837808667
tp1074
a(F3.691162248974562
F0.5144037640892098
tp1075
asS'mLvvLMQQQceflgjklkjkjlhaslvvvhwwwwh_201021100221'
p1076
(lp1077
(I3
I0
tp1078
a(F0.4232988810629145
F1.4525964175615456
tp1079
a(F12.401916050319171
F-0.8289656530086752
tp1080
asS'mvLALLMQQcdfgkjhillkklffaqssogiirbe_022220011111'
p1081
(lp1082
(I4
I0
tp1083
a(F0.8217412932191859
F0.30740223585509946
tp1084
a(F7.145360903487409
F2.687900359240544
tp1085
asS'nLLLLvMQQkbefgijmjkkmllmxxqhoxaqxqhffo_1022101112212'
p1086
(lp1087
(I6
I1
tp1088
a(F0.4328398931841562
F0.38078758926465456
tp1089
a(F8.231408834408372
F0.7840621788759308
tp1090
asS'nLLLLzAAQkbefgjihkimmllmxxqhxogibrbkvb_1022101110122'
p1091
(lp1092
(I1
I3
tp1093
a(F0.5371855899791456
F-0.21093404291383827
tp1094
a(F5.372397624279653
F-1.3777149945722902
tp1095
asS'nLLvLPMAQkbefkikhjkjllmmxxxxjioopjhqfj_1022101010022'
p1096
(lp1097
(I5
I3
tp1098
a(F1.0361672498952856
F0.9691999083861315
tp1099
a(F16.431249740421606
F2.7815756664974125
tp1100
asS'nLLLwLLQQkcdefhikllkkjmmhftafeamgsswnj_2010220211012'
p1101
(lp1102
(I1
I0
tp1103
a(F0.7722183199856538
F0.9005958005791319
tp1104
a(F23.46933733814833
F0.9090913212133699
tp1105
asS'nLLLLzPQMkbegfjhiklklmmmhhqahooxxxxhaa_1200112112001'
p1106
(lp1107
(I1
I1
tp1108
a(F0.9127220128017846
F0.6689525194641937
tp1109
a(F5.562506599172956
F-3.015518992616282
tp1110
asS'nLLLLzAMQkbefgjkhlmmklmlxxqhxqghpeavvb_1022101110222'
p1111
(lp1112
(I1
I2
tp1113
a(F0.9427504784934058
F-0.3753790680002163
tp1114
a(F5.643727880593174
F-0.8823226765868966
tp1115
asS'mvLAAvMQQcdfeghlikjkllffafqrigipcjj_022220011112'
p1116
(lp1117
(I10
I2
tp1118
a(F0.004183533577193929
F0.19718566463310944
tp1119
a(F5.04362296975619
F-0.1271637978614541
tp1120
asS'lvLLLAQQcefghigjikjkkghahenrrwsfr_12222110001'
p1121
(lp1122
(I6
I3
tp1123
a(F0.59674269200356
F0.5883449551344162
tp1124
a(F6.408613806344556
F0.6442286179769626
tp1125
asS'nLLLPvPPQkcdehgkkmllklmmhftxgduxknofvc_2010220100000'
p1126
(lp1127
(I2
I1
tp1128
a(F0.5622560079049201
F-0.4299490176755821
tp1129
a(F6.54645905301991
F-0.2333942580028471
tp1130
asS'nLLLALMwQkbcfeejhkilmlmmtsmlaalggqqaqf_2010222111022'
p1131
(lp1132
(I11
I2
tp1133
a(F-0.41057469033127486
F-0.682105525847313
tp1134
a(F14.24454157637004
F1.5217091002080845
tp1135
asS'nLLvLAPPQkbefhfhjklklkmmxxxsooouhmqqfj_1022101010122'
p1136
(lp1137
(I8
I0
tp1138
a(F0.3170118971230158
F0.7733834155440297
tp1139
a(F15.661695691971335
F-1.7978133582321632
tp1140
asS'nLvLLAPPQkceejhlhjmklkmmqiqnfebshpeqgr_2101020102111'
p1141
(lp1142
(I0
I2
tp1143
a(F0.43595850634323036
F0.05434634054756248
tp1144
a(F13.388538555283732
F0.7270256006758383
tp1145
asS'nLvLvMQAQkbegglhkikjmlmmhigrarvkwfaimn_1200001122120'
p1146
(lp1147
(I4
I2
tp1148
a(F1.073674947516885
F0.7405461700640797
tp1149
a(F5.327392812053677
F-0.8625914537534919
tp1150
asS'nLvALvQAQkadfhkjijlkmllmjaqhauhlnvacvj_2002111000002'
p1151
(lp1152
(I2
I3
tp1153
a(F0.646175095548822
F0.8016788083237344
tp1154
a(F23.129039788013692
F1.4887110633104594
tp1155
asS'nLLLMzzMQkcdefgikjmlmmllhftagpqdcsjwrg_2010220201200'
p1156
(lp1157
(I1
I1
tp1158
a(F0.7507565605417398
F0.9858294910129136
tp1159
a(F20.43964379388121
F1.9819425383485905
tp1160
asS'mLLvQzLQQbeghfiljkjkllhhhhahhqxggrw_120011222001'
p1161
(lp1162
(I5
I3
tp1163
a(F0.9318945293186756
F2.1661853564485547
tp1164
a(F13.31591930312635
F1.5456547625481867
tp1165
asS'nLLLMLMLQkcdgfhiikjmmllmqgqablmqgnkrgg_2101222211011'
p1166
(lp1167
(I2
I0
tp1168
a(F1.0465377048543119
F0.8637089652747659
tp1169
a(F16.554868784620396
F-2.5276212050458873
tp1170
asS'nLALLLwQPkcbbegijikllmlmqqjnahhphwkhnj_0220012120002'
p1171
(lp1172
(I4
I2
tp1173
a(F-0.10094161407965001
F0.25272562011299277
tp1174
a(F10.86727436536598
F1.76857327008655
tp1175
asS'lvLAAvQQcecfgfjikijkkccaxlcclrrll_01111002222'
p1176
(lp1177
(I3
I1
tp1178
a(F0.23996182237720384
F0.5663505946932369
tp1179
a(F6.148648021463929
F-1.888177806671048
tp1180
asS'mLLLLzQAQbefgjihkkilllxxqhxogpibrbo_102210111012'
p1181
(lp1182
(I1
I3
tp1183
a(F0.3978594549278901
F-0.2029302038778342
tp1184
a(F5.531505268699507
F-1.1202086859362246
tp1185
asS'nvLAAvLQQkecfgfkijmllmlmccaxllrrllllss_0111100222222'
p1186
(lp1187
(I11
I1
tp1188
a(F0.7012523400349286
F0.0988159301147892
tp1189
a(F5.484850961422643
F2.261067220058407
tp1190
asS'mLLPvPLQQcdcfhijkikkllhsraxhxjfsoon_122201022211'
p1191
(lp1192
(I8
I2
tp1193
a(F0.229168419758486
F-0.6419532274518409
tp1194
a(F10.623416567284146
F-0.5836189276370966
tp1195
asS'nLLLvAAMQkbeeijgkkillmmmxxqornaasmeugn_1022111100202'
p1196
(lp1197
(I12
I2
tp1198
a(F0.1421118855371993
F0.1270668221129477
tp1199
a(F4.920159652424707
F-2.738914801654158
tp1200
asS'mLLLMPvQQbeffgihljjkllxxqphxoxrbbrg_102210110220'
p1201
(lp1202
(I2
I2
tp1203
a(F0.17040424341143592
F0.5905127835817218
tp1204
a(F4.111101956862816
F3.056441812584617
tp1205
asS'lLvLQLMQcaeefhiijjkkknxvvjxluqifo_10012212000'
p1206
(lp1207
(I2
I0
tp1208
a(F0.43037288956872133
F0.36792099681230594
tp1209
a(F4.7108205202540185
F-0.945584556238757
tp1210
asS'nLLvvAPQQkbejkgkhmlmlklmxxwwwbraahqgxa_1022101011122'
p1211
(lp1212
(I12
I2
tp1213
a(F0.8580904598422037
F0.1114889893849735
tp1214
a(F6.225588052184933
F1.352108348104563
tp1215
asS'nLLvzPLQQkbehkglkjkmlmlmhhahvatvtmxdxx_1200111111200'
p1216
(lp1217
(I8
I2
tp1218
a(F-0.4025022969729874
F0.6933657072719843
tp1219
a(F7.344486800367869
F0.9684505728189979
tp1220
asS'nLLvPMLPQkcdhigjijmkllmmhshvbavqqhffoo_1000121120000'
p1221
(lp1222
(I0
I3
tp1223
a(F3.9102335527448404
F1.2048434178051315
tp1224
a(F17.056750223473085
F-2.266519905914133
tp1225
asS'mLLLLLQAQbegfjkhijklllhhqaaaooxxhww_120011211002'
p1226
(lp1227
(I1
I1
tp1228
a(F0.9868579939748726
F0.19137660279566276
tp1229
a(F8.26730259025192
F2.866063965253901
tp1230
asS'nLLLLvPQQkbdefhjikkjlmmmhrugkxrxxpfogr_1200012111001'
p1231
(lp1232
(I0
I2
tp1233
a(F0.0670139994514737
F0.2888403363895047
tp1234
a(F8.651839189715265
F2.0335159607503157
tp1235
asS'nLLLwvQPQkcdefhkilmllmkmhftawiexrggwgw_2010220211111'
p1236
(lp1237
(I6
I0
tp1238
a(F0.6203701251613211
F-0.295836536147102
tp1239
a(F10.947979063711399
F-0.8397544936733486
tp1240
asS'mLLwLwMQQacdfhikijlklljkacqsokfhnxa_200211000002'
p1241
(lp1242
(I0
I2
tp1243
a(F0.2619794966249222
F-0.11882413492103304
tp1244
a(F8.516952786376825
F-0.3918863345537179
tp1245
asS'mvLALPzQQcdfgijkjlkkllffaqxohrpeeit_022220011111'
p1246
(lp1247
(I10
I2
tp1248
a(F0.37733451868270806
F-0.057822061870660676
tp1249
a(F3.8042918927950815
F0.9007273562537318
tp1250
asS'nLLLvzMQQkbefkiljjmikmlmxxqxopgbhbuhbo_1022101111012'
p1251
(lp1252
(I0
I0
tp1253
a(F0.47162504946151274
F0.05192874183550269
tp1254
a(F6.482974207607897
F-0.44870137134219074
tp1255
asS'mLLvvAQQQbejkhgklijlklxxwwfwbejfqgx_102210101112'
p1256
(lp1257
(I7
I2
tp1258
a(F-0.2570320769922637
F1.1554875589640368
tp1259
a(F9.621597404493688
F-2.4111335674220467
tp1260
asS'nLLvMLwQQkbegegiiljkmmlmhhearkftqgccjw_0111022001102'
p1261
(lp1262
(I8
I0
tp1263
a(F-0.5467090933057926
F-0.16968885242768458
tp1264
a(F15.970225651659392
F2.7191896496092745
tp1265
asS'nLLvLzMQQkbehkklimljmjkmhhlhttktpfxvib_1200112211222'
p1266
(lp1267
(I4
I0
tp1268
a(F0.3983328431153547
F0.09617961711485738
tp1269
a(F5.317858658714726
F0.44215860503517934
tp1270
asS'nLvLPzzQQkcfgehlikjmkmlmllpibecitxcnkb_1200001122120'
p1271
(lp1272
(I0
I2
tp1273
a(F0.39332944583888485
F0.41252433063699007
tp1274
a(F5.347229599164044
F1.2654404828033763
tp1275
asS'mvLLLLQQQcdfkihikljjllwrqwcbcgkkcvb_102021111111'
p1276
(lp1277
(I0
I2
tp1278
a(F0.8549853967202019
F0.4649900432213498
tp1279
a(F7.667510164218151
F0.7247478816356702
tp1280
asS'mLLLLzAQQbefgjkhlijkllxxqhxqghbuavb_102210111022'
p1281
(lp1282
(I0
I0
tp1283
a(F0.3238527041221594
F0.004505149987194557
tp1284
a(F8.163456358441483
F-0.3044061446421138
tp1285
asS'mLLLLAAAQbefgigjiiklllxxqhwrqgbxqpe_102210111200'
p1286
(lp1287
(I9
I2
tp1288
a(F0.23317929865403056
F0.23610841189822793
tp1289
a(F9.879426395035942
F2.6362486488801946
tp1290
asS'mLLLLLAQQacfhkjkjllkjljkghtadlcogsg_200212101000'
p1291
(lp1292
(I1
I1
tp1293
a(F0.6718044792289334
F1.1092652739153883
tp1294
a(F12.549551294061528
F3.015220288940752
tp1295
asS'lLLLwLQQccdefihjikikkhftahweexqnk_20102202111'
p1296
(lp1297
(I6
I0
tp1298
a(F1.093983128257945
F0.006122331067572822
tp1299
a(F8.209467033670531
F-0.4735988871570696
tp1300
asS'mLLLLLPQQbcfhgkjiijllltshbfhqsrtjnk_201022222011'
p1301
(lp1302
(I8
I2
tp1303
a(F0.19102650773567703
F0.28186054589927484
tp1304
a(F7.844131211552287
F-2.7731924504998586
tp1305
asS'mvLLLMMQQcdhihgijlkkllvvxtggrwtgkpd_011112202200'
p1306
(lp1307
(I1
I3
tp1308
a(F0.523496553262745
F-0.17647639796418874
tp1309
a(F11.454049999798537
F0.10766294470319251
tp1310
asS'nLLLwvMQQkcdefjkmkljklmmhftahxxlxbbgkb_2010220211111'
p1311
(lp1312
(I0
I0
tp1313
a(F0.4176695732718622
F0.05354021041925952
tp1314
a(F4.929443948783349
F-2.7728111085230687
tp1315
asS'mvLAALLQQecfgfhlijkkllccaxlvmrblllo_011110022222'
p1316
(lp1317
(I10
I1
tp1318
a(F0.7180468051136593
F0.45515178901145475
tp1319
a(F5.673294259978174
F2.376542761239757
tp1320
asS'nLvvQAPLQkcgfehijklmlmmlhaaaggaahhwwrr_2010222000022'
p1321
(lp1322
(I11
I1
tp1323
a(F0.03243278000828915
F0.5847040026923047
tp1324
a(F10.645863090548614
F-2.9381441747860517
tp1325
asS'nLvLALMQMkaeefjjkikllmmmnxvvxlueqinieh_1001221200001'
p1326
(lp1327
(I7
I1
tp1328
a(F0.23337129314805605
F-0.3594619624120612
tp1329
a(F10.79396618353736
F-1.9441577730970463
tp1330
asS'mvLLLQLQQeeihjhklhlkklgoaaigaagpppp_210010021111'
p1331
(lp1332
(I4
I3
tp1333
a(F0.38565595074720543
F0.6515227752792021
tp1334
a(F6.590204074446801
F-1.8320764723650904
tp1335
asS'lLLLMPwQcbeffgihikjkkxxqphxouxvrg_10221011020'
p1336
(lp1337
(I5
I0
tp1338
a(F0.16499664267366765
F0.5446650506136796
tp1339
a(F6.67733099693163
F-1.921740687693718
tp1340
asS'mvLALzMQQcdfgfijlkkjllffaqporpttwen_022220011111'
p1341
(lp1342
(I9
I3
tp1343
a(F-0.209390775355265
F-0.08314236328596188
tp1344
a(F8.266585379336883
F0.08657400057176995
tp1345
asS'nvLALLLQQkecfgilljimmkmlccaxjddcsxqgqm_0111100002221'
p1346
(lp1347
(I7
I2
tp1348
a(F0.8645751059578668
F-0.024858281009941714
tp1349
a(F7.567191438962182
F-2.580878566081541
tp1350
asS'mLvvLMQQQbggiilgkjlklkhagrragfkxfef_120000111222'
p1351
(lp1352
(I5
I1
tp1353
a(F0.5218660575966001
F0.5442515107253334
tp1354
a(F3.888407491393492
F-0.5416747387312701
tp1355
asS'nLvLwMQwQkcggfhjkijlmlmmqdascsabjuuvbs_2101222122121'
p1356
(lp1357
(I1
I3
tp1358
a(F-0.32356127427139614
F0.7541586756661842
tp1359
a(F10.562863721917463
F2.1000639530565497
tp1360
asS'nLLvwPLQQkcdfikljlmjkmmlhsanthihqehugj_1222011102120'
p1361
(lp1362
(I10
I1
tp1363
a(F0.3714747474795456
F0.07248839086331958
tp1364
a(F3.1230372938130775
F0.7214046648168333
tp1365
asS'nLvLvAMQQkbehjklihmmklmlxlvgnuggimwmhm_1022221110001'
p1366
(lp1367
(I1
I2
tp1368
a(F0.6864238387269495
F0.5164571540744464
tp1369
a(F6.044583347858112
F-0.8806294495460281
tp1370
asS'nLLLLLMAQkbefgjijljkmlmmxxqhdoxiqixwgg_1022101112220'
p1371
(lp1372
(I4
I1
tp1373
a(F0.5122615032554481
F1.0906816435178088
tp1374
a(F7.443108462235674
F1.7506555000962025
tp1375
asS'nvLLLLAQQkegfhhijkmjllmmreeagrjbigwjda_1202001120012'
p1376
(lp1377
(I3
I0
tp1378
a(F1.0044461194678316
F-0.1456615525797691
tp1379
a(F4.525513620681702
F-3.031147577663583
tp1380
asS'nLvLLAPQPkbghihhkljlkmmmxqhnvnaeoxaxcv_1022220111000'
p1381
(lp1382
(I3
I3
tp1383
a(F0.9117352614837181
F-0.12019105818705782
tp1384
a(F9.816644755206339
F3.1006489069511836
tp1385
asS'lvLLAQzQcefdgihhjkjkkrloqapgdalxf_02222100021'
p1386
(lp1387
(I1
I1
tp1388
a(F-0.16494930327852741
F-0.01333030952392647
tp1389
a(F8.68681309283345
F-1.7685102373239219
tp1390
asS'nLvvALMQQkcefgiikjmjlmlmhuhvrrareghsro_2010211002100'
p1391
(lp1392
(I2
I1
tp1393
a(F0.21738416367381677
F0.9467615426602181
tp1394
a(F10.287033041669329
F0.16260821055243893
tp1395
asS'nLAwLMLPMkcbbdfhikljkmmmhhrhjajidacaaq_1221220101120'
p1396
(lp1397
(I0
I1
tp1398
a(F0.9002702479318423
F-0.5046230677421214
tp1399
a(F9.161132644941967
F-2.3292202741818615
tp1400
asS'mLLLwLMQQcdgfkilklijlkqgqaxxqhthwsr_210122220100'
p1401
(lp1402
(I11
I0
tp1403
a(F0.32402721475924107
F-0.28913573560487604
tp1404
a(F7.870591854178804
F-0.373560574620946
tp1405
asS'nLLwvPwQQkacdkhkjlijmmlmjkalhuoufnxalo_2002110000022'
p1406
(lp1407
(I5
I2
tp1408
a(F0.0843230806859083
F0.8611189296669646
tp1409
a(F11.597939567986504
F-2.141650844637273
tp1410
asS'nLLvAPzAQkbefhjgiklmllmmhhxahvcxahvkck_1200111112002'
p1411
(lp1412
(I6
I0
tp1413
a(F0.0717813786396966
F0.8298911707830575
tp1414
a(F8.058128841987863
F1.5737485567141896
tp1415
asS'mLLLvPQAQbcghkgihjjklltsdktgrfmqfsw_201022212001'
p1416
(lp1417
(I7
I3
tp1418
a(F0.5077665199532629
F1.0938033770596978
tp1419
a(F17.818524383625252
F2.785394626031459
tp1420
asS'mLLvQLMPQbeghfijkllkklxxaxxhqxxkvvn_102210102201'
p1421
(lp1422
(I6
I1
tp1423
a(F0.5206931934064949
F0.08026040384439304
tp1424
a(F4.821885147276696
F0.5950175894161831
tp1425
asS'mLLLMvPQQbefghijklkllkhhihupptigvvg_120011220020'
p1426
(lp1427
(I2
I3
tp1428
a(F0.7439718346641178
F0.5177409236494057
tp1429
a(F13.482724390041737
F2.43438499970094
tp1430
asS'nLvLQLMLQkbfhegjikmllmmlxeaexaxxjjvvoo_1022220110100'
p1431
(lp1432
(I10
I1
tp1433
a(F0.6098944797686765
F1.028696444822871
tp1434
a(F16.32469278447499
F-2.9977691733154894
tp1435
asS'nLLLvPAAQkbeejhghkjkmlmmxxqrgngxfqagck_1022111100202'
p1436
(lp1437
(I12
I1
tp1438
a(F0.7336999441706136
F0.5901599121174029
tp1439
a(F4.196673061272306
F2.4585436514312353
tp1440
asS'nLvLAwMPQkbhgfghlmkjmlmlhqxtgkimppksks_1200001211121'
p1441
(lp1442
(I12
I0
tp1443
a(F-0.0024769793919489293
F0.19464855151367372
tp1444
a(F8.616720460749677
F0.47293434590550093
tp1445
asS'nLLLMLzMQkcdefghklmjkkmmhftagfqhxobrpi_2010220200211'
p1446
(lp1447
(I9
I2
tp1448
a(F0.6448020457639302
F0.7904656053814539
tp1449
a(F11.379571539164814
F-1.9733279888040474
tp1450
asS'mvLALLAQQecfgjkkjlijllccaxvvrkeokix_100001122112'
p1451
(lp1452
(I3
I1
tp1453
a(F0.7839990103246061
F-0.30841366460261377
tp1454
a(F11.664558482317172
F0.16508520342451422
tp1455
asS'mLLvLPMQQacikhjhljkllkjkhhaamhmvksv_200212110120'
p1456
(lp1457
(I5
I0
tp1458
a(F0.32835537124411507
F-0.0669786539802471
tp1459
a(F11.754271308021515
F0.3553848279173969
tp1460
asS'nLvLLLQMQkceglgkilkmjmlmhttlvdvheefeun_2010211022112'
p1461
(lp1462
(I7
I0
tp1463
a(F1.8310228132644755
F1.0703541063660396
tp1464
a(F12.4727473345649
F-0.7027201255864111
tp1465
asS'nvLLAvPQQkeegelhmkmlklkmcvecabeeqxqxqq_0111122022111'
p1466
(lp1467
(I8
I2
tp1468
a(F0.8934521586345292
F-0.5537109176783395
tp1469
a(F12.114479267674822
F-1.9497194932500224
tp1470
asS'mLLLAAMzQcdffgfhijklllqgdatgqhqhqdm_210122102210'
p1471
(lp1472
(I3
I0
tp1473
a(F0.12407550267873871
F1.245004426488167
tp1474
a(F8.65006407389114
F1.087319954146988
tp1475
asS'nLLLLzQLQkccghikhjkmlllmlnhbgdnphhrnfr_1200111112002'
p1476
(lp1477
(I6
I0
tp1478
a(F0.3427669328049034
F1.3668736498406688
tp1479
a(F19.91797104356372
F-1.0577340264687094
tp1480
asS'nLLLAvLQQkcdefgjmkkmjllmhftadwwwwwwrrn_2010220111111'
p1481
(lp1482
(I5
I0
tp1483
a(F0.9400541309084438
F-0.587278724870903
tp1484
a(F17.36532366923934
F0.8240650293237947
tp1485
asS'nvLLLLQPQkegfhhjiljmkmlmreeagfcckebtci_1202001121112'
p1486
(lp1487
(I3
I3
tp1488
a(F0.5282918839081437
F-0.9751015186709275
tp1489
a(F9.855287140354418
F2.8400250180729465
tp1490
asS'kLLLMMMkcdgfhfihjjjqgqabgarqcv_2101222211'
p1491
(lp1492
(I4
I3
tp1493
a(F0.793206616194041
F0.5823282583143898
tp1494
a(F4.511149752564977
F2.5444866092917438
tp1495
asS'kLLLALQkcdgfejiiijjhfhaqhtefos_2010222001'
p1496
(lp1497
(I0
I0
tp1498
a(F0.18070018393399515
F0.10207679992450366
tp1499
a(F5.12356656734463
F-1.9588474453135567
tp1500
asS'nLLPLvLQQkcdcfhkiljklmmmhsralxjsoojjso_1222010212222'
p1501
(lp1502
(I5
I2
tp1503
a(F0.1689852417119015
F0.731813397051112
tp1504
a(F14.506971071200915
F-2.724827375488678
tp1505
asS'mLLvLQLQQbeffjglhlkjklxxxjsfqjhhoqo_102210101022'
p1506
(lp1507
(I5
I3
tp1508
a(F0.45449567667896923
F-0.43707395412237704
tp1509
a(F12.342467152893128
F2.448103067438452
tp1510
asS'nLLLLLAQAkbcfhgkkiijklmmtshbfhhsrtfsqj_2010222220102'
p1511
(lp1512
(I9
I1
tp1513
a(F1.3511578919859417
F0.6431791725265988
tp1514
a(F6.3089147247777495
F-1.906243007058116
tp1515
asS'lLLLwPMQccdefjihikikkhftahhweuqnc_20102202112'
p1516
(lp1517
(I6
I0
tp1518
a(F0.9307825915442449
F0.06561557642947204
tp1519
a(F8.812797009712737
F-0.6000785489595702
tp1520
asS'nLLvALAPQkbefhjiilmkmlmlhhxaaccqqavvkk_1200111110022'
p1521
(lp1522
(I0
I0
tp1523
a(F1.1040661664583802
F0.2396446416169551
tp1524
a(F8.618198404920678
F1.91560134634982
tp1525
asS'nLvLAwPMQkcfheihjkljmlmmqdtdwghehdbfoo_2101020122000'
p1526
(lp1527
(I10
I1
tp1528
a(F0.06365140873747589
F0.1503914246987234
tp1529
a(F12.25428189145023
F-1.3593707018111938
tp1530
asS'nLvAvPQzQkcfejghkjikmlmmumuobrmsfmqrgb_0221111000011'
p1531
(lp1532
(I12
I0
tp1533
a(F0.39680573121111357
F0.8341232030292562
tp1534
a(F7.516866140753528
F1.2588441888167028
tp1535
asS'nLLLwwMMQkcdefhhikllmkmmhftarwexnchghe_2010220211122'
p1536
(lp1537
(I12
I1
tp1538
a(F0.6361183749877509
F1.0021826763795039
tp1539
a(F6.3571535972645385
F2.7648082660347324
tp1540
asS'lLLLMLAQccdgfhiihkjkkqgqablmrqgcv_21012222111'
p1541
(lp1542
(I0
I3
tp1543
a(F0.8796107656014073
F0.06517146133901593
tp1544
a(F4.063154638323575
F1.7552502025778383
tp1545
asS'nvLLvPMQQkefjklhmiljlkmmcamaggacgccwxl_0111122200221'
p1546
(lp1547
(I11
I1
tp1548
a(F-0.17348171303257895
F-0.2940686581826026
tp1549
a(F11.025134687563614
F-0.6533571291709255
tp1550
asS'mvLALLPQQcdfhjlkjikljlffalnhnoggejx_022220011001'
p1551
(lp1552
(I2
I0
tp1553
a(F0.16887286098551482
F-0.21046867046937945
tp1554
a(F16.2285159087821
F2.897604481818045
tp1555
asS'kvLLMMQkegffhijhjijcqittdbrgrc_0111122202'
p1556
(lp1557
(I7
I2
tp1558
a(F0.1269878024924486
F0.4029097142239668
tp1559
a(F8.728924898574972
F-2.2581622351985065
tp1560
asS'nLvLLLPQQkbfejkhlijlkmmmhpiktktkkdddoo_1200001122112'
p1561
(lp1562
(I9
I0
tp1563
a(F0.2633800954007921
F-0.7095768016178621
tp1564
a(F14.215233429415493
F-0.6293790719838782
tp1565
asS'nLLLLMLQMkbcghiihjjlllmmtsdojofqmdbwqj_2010222121012'
p1566
(lp1567
(I12
I2
tp1568
a(F0.4165939910020839
F0.003704544574711541
tp1569
a(F9.19246328009846
F-0.13235849783401665
tp1570
asS'nvLLPwzQQkegighhmlkjlmlmfxaxafqaffxqxq_2011022221100'
p1571
(lp1572
(I0
I0
tp1573
a(F0.9802250938068992
F-0.25131146219666234
tp1574
a(F10.097050765203141
F-2.1459179049150627
tp1575
asS'nLLvLLMQQkcdhihjmhklklmmhswvgrmnpaduvw_1222011110220'
p1576
(lp1577
(I7
I3
tp1578
a(F0.899027635347426
F0.36739030471722073
tp1579
a(F9.485822033341762
F0.4292661900914232
tp1580
asS'nLLvQzLAQkbeghfiljkmmllmhhhhahhqxharwa_1200112220011'
p1581
(lp1582
(I5
I3
tp1583
a(F0.8848613031094751
F2.3099155144033743
tp1584
a(F13.785926615361777
F1.5660594722450552
tp1585
asS'nLvLvPMQQkbejillmikijlmmhinrdainckkuah_1200001122122'
p1586
(lp1587
(I0
I2
tp1588
a(F0.01732024108651624
F0.6928630355071885
tp1589
a(F12.021916771384083
F1.0001427982382818
tp1590
asS'mLLvQzLQQbeghfiljkjkllhhaaahhxxggww_120011112002'
p1591
(lp1592
(I4
I0
tp1593
a(F0.052242577068942045
F-0.2541993412111428
tp1594
a(F11.095691786632608
F0.3659018743053763
tp1595
asS'nLvLLLQPQkcfekljlmjilmkmqdquubaujghedc_2101020102111'
p1596
(lp1597
(I12
I2
tp1598
a(F0.45789634290355696
F0.359823516852782
tp1599
a(F4.524529022398029
F2.2720024192533113
tp1600
asS'nLLvQzLPQkbeghfilmjklmmlxxaaaxxxnnnvvn_1022111102200'
p1601
(lp1602
(I9
I2
tp1603
a(F0.44380860751066104
F0.18555475219304232
tp1604
a(F4.130687990842217
F-2.8877230941791154
tp1605
asS'nLLPzMvQMkcdcfgghkjjllmmhsrasvpqjvdsan_1222010121001'
p1606
(lp1607
(I12
I1
tp1608
a(F1.268257003312093
F-0.7965487174107205
tp1609
a(F9.984693591458543
F-2.255922810467742
tp1610
asS'kLLLzMQkcdfeigijjijqceqqrtpxqa_0111220211'
p1611
(lp1612
(I9
I3
tp1613
a(F-1.2881682677731616
F0.37705071951793406
tp1614
a(F13.401339072040898
F-1.8504491885950947
tp1615
asS'nLLLLzPAQkbegfjhiklmklmmhhqahooxxhggww_1200112112002'
p1616
(lp1617
(I1
I1
tp1618
a(F0.9190627418179663
F0.17961594281949736
tp1619
a(F6.598661338930059
F-3.064250264590134
tp1620
asS'mLvLLwQQQcfgikjlliljkkllqrhgpurlbei_120000111111'
p1621
(lp1622
(I8
I1
tp1623
a(F0.5479630912825414
F0.6107176847295238
tp1624
a(F12.885347040976276
F-1.6321222926175964
tp1625
asS'nLLvLLQAQkbefhjlkjiklmmmxxxfjqxsjqxajj_1022101010221'
p1626
(lp1627
(I9
I0
tp1628
a(F1.644733373905243
F0.7638022919623447
tp1629
a(F19.17016807701943
F-1.3428432419619198
tp1630
asS'mLLLLMzQQbcghiikljlklktsdojotqmaxos_201022212100'
p1631
(lp1632
(I5
I1
tp1633
a(F0.17766093443156236
F0.9737905488681413
tp1634
a(F13.730481277781529
F0.20545723046376188
tp1635
asS'mvLALvQQQcdfhjkijiklllffalkksoggtqx_022220011001'
p1636
(lp1637
(I5
I3
tp1638
a(F0.40665809827368665
F0.028479927262402123
tp1639
a(F14.831192057158677
F0.4524332800697442
tp1640
asS'nvLALzLQQkcdfgfljmmjlkmlffaqppwppwppkk_0222200111111'
p1641
(lp1642
(I9
I3
tp1643
a(F-0.029574567979432108
F-0.8111614069435269
tp1644
a(F11.485035782833233
F0.5514099235461589
tp1645
asS'nvLLAMvQQkefdgihmjlmkllmrloqagaoxxqisf_0222210001211'
p1646
(lp1647
(I4
I0
tp1648
a(F0.021824005020558028
F0.7873379899856943
tp1649
a(F10.720260094488294
F-2.6991956344073977
tp1650
asS'mLLLwLPQQcdgfilikkljklhshaxaxmuxffo_122201102222'
p1651
(lp1652
(I6
I2
tp1653
a(F1.2272821886231946
F-0.01626458516213418
tp1654
a(F5.4324084778444925
F1.0819151393326238
tp1655
asS'nvLPvwMQQkegfhjimklmllkmfithrjusflsffm_2011022222111'
p1656
(lp1657
(I7
I1
tp1658
a(F1.1318001414313317
F0.2488972462026168
tp1659
a(F7.689507169884574
F1.9585214215662643
tp1660
asS'kLvvQAQkbhigghjhgjjhhhagwhrgxq_1200001221'
p1661
(lp1662
(I6
I3
tp1663
a(F0.366739323376092
F0.8170827564758006
tp1664
a(F6.683125713165604
F1.5189545258757597
tp1665
asS'nLLvLPAMQkbeekijiljmmkmlhhaavkvhfluqcw_0111022000112'
p1666
(lp1667
(I7
I1
tp1668
a(F0.662697526872929
F0.48275112247151736
tp1669
a(F5.505031764410891
F1.760265612353953
tp1670
asS'nLLLPvPQMkbdehfjlkjlkmmmhruxghhaakbmuq_1200012110010'
p1671
(lp1672
(I9
I3
tp1673
a(F0.29539335569863623
F0.12475236525752927
tp1674
a(F4.979884908189524
F-1.3381297795984235
tp1675
asS'nLLvLPLQQkbefkklllimmjmkxxxxtdlhoxhoqp_1022101010012'
p1676
(lp1677
(I5
I3
tp1678
a(F0.29860676298302147
F-0.031052197970238078
tp1679
a(F11.874023776612955
F2.3645103201871582
tp1680
asS'mLLLMLMMQcdgfhiikkjlllqgqablmqtgnkf_210122221101'
p1681
(lp1682
(I0
I3
tp1683
a(F0.9434094149700265
F0.06857925719812688
tp1684
a(F4.611271776351838
F1.740607790688994
tp1685
asS'nLLLwPMPMkcdgfhjikijlmmmqgqajlxqhwbqti_2101222201012'
p1686
(lp1687
(I10
I0
tp1688
a(F2.435213218964679
F0.9449297098667836
tp1689
a(F27.27334276862582
F-2.0170738688584926
tp1690
asS'nLLvLPAPQkbehikfkljmlkmmhhlcanxafqhmln_1200112211000'
p1691
(lp1692
(I8
I3
tp1693
a(F0.6868268525729144
F0.7400049472257642
tp1694
a(F20.812557854347798
F-1.674130854059873
tp1695
asS'mvLAAvAQQecfgfijikllklccaxlnnruqxmv_011110022221'
p1696
(lp1697
(I8
I0
tp1698
a(F0.6365398617626231
F0.08008094117495589
tp1699
a(F7.513400046728877
F2.611376369225571
tp1700
asS'mLLLwMwQQcdgfgjikikjllhfhafhhqqjwjw_201022221101'
p1701
(lp1702
(I2
I2
tp1703
a(F0.4030495521129449
F0.6197315296456636
tp1704
a(F12.614937021257182
F-1.7747894692654127
tp1705
asS'nLLLLLAAQkacfhkkkjljjlmmjkghtqdlcwsghj_2002121010002'
p1706
(lp1707
(I7
I0
tp1708
a(F0.46639850007874817
F0.07749305705579732
tp1709
a(F11.770787585580225
F-1.2450966805719974
tp1710
asS'mLLLLPMMQcedfihikjlkllptrnccbxxxjcf_102212011010'
p1711
(lp1712
(I3
I2
tp1713
a(F0.73792872170995
F-0.8319601290860831
tp1714
a(F15.302419407662468
F0.07367677588449047
tp1715
asS'mLvvMwQQQbhgglkgjilkklhhagaagojdddd_120000122222'
p1716
(lp1717
(I7
I3
tp1718
a(F0.7630861200881447
F0.12569789622309802
tp1719
a(F7.621285255910089
F-0.38281937288414736
tp1720
asS'nLLLAwPQzkcegfggiijkklmmqqqaqoidicsahr_1222011112212'
p1721
(lp1722
(I4
I0
tp1723
a(F0.28949623538137126
F1.8727805283463625
tp1724
a(F14.850439115415046
F1.185333568014837
tp1725
asS'nvLLLMwQQkefghjgmllmjklmghahindllussqa_1222211000100'
p1726
(lp1727
(I0
I2
tp1728
a(F1.0974867618504718
F-0.19649697564913524
tp1729
a(F7.216382441375312
F1.5072709989443043
tp1730
asS'nLLLwMPMPkcdgffjkiklmlmmqgqagaqutbtwdq_2101222211002'
p1731
(lp1732
(I6
I1
tp1733
a(F0.6091921188635242
F-0.496391252857366
tp1734
a(F10.341071028185405
F-2.8128373584323807
tp1735
asS'nLLvwLQAQkcdfhglkkjmllmmhsaggiipexxock_1222011102221'
p1736
(lp1737
(I2
I2
tp1738
a(F0.418739757756061
F0.8443678929376278
tp1739
a(F7.347037790627158
F-2.998346710529732
tp1740
asS'nLLvPvPQQkcdhghkjkjllmmmhshgsqxqpxasfw_1000121122001'
p1741
(lp1742
(I0
I3
tp1743
a(F1.7163556685646886
F2.089226020335217
tp1744
a(F28.391316932903337
F-2.5923417618885427
tp1745
asS'mLLLvMQPQacfikkkjjillljkgmtqdxvjnkg_200212101002'
p1746
(lp1747
(I9
I2
tp1748
a(F1.1566803940475845
F0.8063681933741996
tp1749
a(F12.267236492433172
F2.748754443081581
tp1750
asS'nLvLwLAQQkcgghklimkjllmmqdacxabadbhhtj_2101222122010'
p1751
(lp1752
(I3
I0
tp1753
a(F0.666446441744411
F3.748058177840626
tp1754
a(F19.016326503105933
F0.9625309914906188
tp1755
asS'mLLLMLAAQcdgfhiihkjlllqgqablmrqgxxa_210122221110'
p1756
(lp1757
(I0
I3
tp1758
a(F0.8586426803634261
F0.09799154504439353
tp1759
a(F4.796385529090643
F1.804378333423597
tp1760
asS'nLLLPvMPQkbdehfijljmkmlmhruxgqihfbvvnf_1200012110000'
p1761
(lp1762
(I7
I2
tp1763
a(F-0.3674442870590142
F1.3116561374036129
tp1764
a(F11.073012258463237
F1.1424219119107495
tp1765
asS'nLvLLAMPQkbdihjiljkkmlmmxwrvrbenpqqpvr_2111220000101'
p1766
(lp1767
(I7
I0
tp1768
a(F0.36667732776513895
F0.4824026110547853
tp1769
a(F24.86480583170017
F1.1014545306930432
tp1770
asS'nLLLMzPMAkcdefgikkjlklmmhftagpqtdckjdn_2010220201200'
p1771
(lp1772
(I6
I2
tp1773
a(F1.0412128482768483
F0.3949620888627381
tp1774
a(F12.795461148782493
F1.7574654417352789
tp1775
asS'nLALLLwPQkcbbegijlklmkmmqqjnahhewfkkvr_0220012120022'
p1776
(lp1777
(I4
I3
tp1778
a(F-0.6726521675980431
F0.2383827883959329
tp1779
a(F7.224831125191301
F1.539066174067071
tp1780
asS'nLvwLLQPQkadhkhllimljkmmnajajaeiakncnk_1001222200000'
p1781
(lp1782
(I9
I2
tp1783
a(F0.5179771114199779
F-0.6547193938574157
tp1784
a(F7.079833458126875
F2.691689929788555
tp1785
asS'mLLLLwQQPbdefhihjikklldwignjjqbpkaj_210102122002'
p1786
(lp1787
(I11
I1
tp1788
a(F0.43244445919345975
F0.20277453252551358
tp1789
a(F10.046453630159645
F-0.4003216839239871
tp1790
asS'mLLLPvPQQcdehgkkjjllklhftxgduxaknof_201022010000'
p1791
(lp1792
(I2
I1
tp1793
a(F0.55824509047334
F-0.42817761488161993
tp1794
a(F7.106203695775844
F-0.19447172473600977
tp1795
asS'nLvLALwQQkaeefjjmkjmkllmnxvvxliqxcjnon_1001221200002'
p1796
(lp1797
(I2
I2
tp1798
a(F0.19093198740318695
F0.3584611744051399
tp1799
a(F14.706496362669583
F2.77537435668992
tp1800
asS'jLLLMPQbeffgghiiixxqphroxep_102210112'
p1801
(lp1802
(I5
I0
tp1803
a(F0.24931775044756285
F0.5058124503580421
tp1804
a(F7.586978306263124
F-1.9198365854261477
tp1805
asS'nLLLLwQzQkbegfhgjkljmmlmxxmxwwhtmufvrf_1022101102201'
p1806
(lp1807
(I10
I3
tp1808
a(F0.14552301822238378
F0.07090283054600136
tp1809
a(F10.088287889764183
F-0.42561951995859565
tp1810
asS'nLLvLLQPQkbefklhijimklmmhhaaafkffdxxkk_1200112211000'
p1811
(lp1812
(I4
I2
tp1813
a(F-0.4178672195437069
F2.1707802311877904
tp1814
a(F13.473363870229662
F0.2903770163799741
tp1815
asS'nLLLLPAAAkcedihgiikjklmmptrbvkjbhurlqs_1022120110220'
p1816
(lp1817
(I5
I0
tp1818
a(F0.5581757021386844
F-0.002913880060872688
tp1819
a(F6.659679038260318
F0.10911445601169815
tp1820
asS'mvLLLMMQQcdhikjkljlkjlvvmtbwgarhcgu_011112202221'
p1821
(lp1822
(I8
I2
tp1823
a(F0.9407578102405422
F-0.5120804937577957
tp1824
a(F8.590109597842012
F-3.102001016128183
tp1825
asS'mLLLzwQQPcdfeiijkjijllqceqqtpexqaqj_011122021102'
p1826
(lp1827
(I10
I0
tp1828
a(F2.4851556547008107
F3.1249352693484456
tp1829
a(F20.931542067374156
F1.9053507124093876
tp1830
asS'nLLvLPLQQkbehikklmljmlkmhhlcaxhqhfaamu_1200112211000'
p1831
(lp1832
(I0
I0
tp1833
a(F1.2063837060917124
F-0.1944426217305095
tp1834
a(F9.626120722692727
F1.18245610750635
tp1835
asS'nLLLLzQMPkcedihiikkjllmmptrbvjbqhuwcuj_1022120110122'
p1836
(lp1837
(I1
I0
tp1838
a(F0.423246173666746
F0.34940440973516146
tp1839
a(F5.999211000749181
F1.7111326211338533
tp1840
asS'mvLLAzMQQcdfghjikilkllvvqqdngacaxeg_011112202011'
p1841
(lp1842
(I0
I1
tp1843
a(F0.525464368684498
F1.6023319940546794
tp1844
a(F6.687540664911015
F-2.3071273189122565
tp1845
asS'mLvvALQQQcgfgihjkllklkhhhjssoappaqh_201021100210'
p1846
(lp1847
(I10
I3
tp1848
a(F0.263305133493382
F0.24137911835703127
tp1849
a(F8.826276000926189
F-1.6656464098404897
tp1850
asS'mvLALLMQQecfgjkkjiljllccaxvvwkfekix_100001122112'
p1851
(lp1852
(I8
I0
tp1853
a(F0.8743566440365963
F0.46962827387047934
tp1854
a(F5.185608977320262
F-2.527159666458251
tp1855
asS'nLLLLLAMQkbdefigkjlklmlmdwigokxmqpvvfj_2101021222000'
p1856
(lp1857
(I1
I1
tp1858
a(F0.7109545898401148
F0.653574764045279
tp1859
a(F9.76278079184148
F2.0563894191684553
tp1860
asS'mLLLMPwAQbeffgihikjlllxxqphxouxvqti_102210110200'
p1861
(lp1862
(I5
I0
tp1863
a(F0.21357895413433878
F0.553614442440597
tp1864
a(F6.7662593386018575
F-1.895714202934278
tp1865
asS'kvLPMwQkcdeehgjiijjbbgghcaxllc_2111100211'
p1866
(lp1867
(I8
I3
tp1868
a(F0.4201408443758393
F-0.19991788842974076
tp1869
a(F6.322691378658265
F0.8978377658542782
tp1870
asS'nLLLwLLQQkcdgfimkklmjklmhshaxhmuxwffog_1222011022222'
p1871
(lp1872
(I12
I2
tp1873
a(F-0.285946326035452
F0.4671725558211909
tp1874
a(F5.918673968674802
F-2.4464413112475722
tp1875
asS'lLLLwLQQccdefijhkkjjkhftahhwxlubb_20102202111'
p1876
(lp1877
(I10
I2
tp1878
a(F1.000997022238556
F0.7164746578484756
tp1879
a(F5.730503778135949
F1.9642873585401572
tp1880
asS'mLLLwAQMPcdgfgfhjijkllhfhafwsddwaxn_201022221101'
p1881
(lp1882
(I7
I1
tp1883
a(F0.4219204548955792
F0.46627686454350725
tp1884
a(F14.725985440658073
F0.41194992436073863
tp1885
asS'mLvLwzQQQcggikilijkllkqdagxgxbjddqq_210122212200'
p1886
(lp1887
(I0
I3
tp1888
a(F0.44471385234321953
F0.38801325965913874
tp1889
a(F3.769494396379667
F2.9626273207714404
tp1890
asS'nLLLLLQLQkbegfjkhilmmlmlhhqaaaooaakkkk_1200112110000'
p1891
(lp1892
(I3
I1
tp1893
a(F1.077928126187777
F-0.939618273397388
tp1894
a(F5.3749320017616435
F2.684526751499941
tp1895
asS'kLLLMLQkcdgfhiihjjjqgqablmrxhg_2101222211'
p1896
(lp1897
(I1
I3
tp1898
a(F0.8344912712261098
F0.3670243029947899
tp1899
a(F6.518860316717848
F0.7424485575222355
tp1900
asS'lLLLMMPPccdefghhjikkkhftagofqaxud_20102202021'
p1901
(lp1902
(I3
I1
tp1903
a(F0.7076139369677186
F0.909485052998047
tp1904
a(F12.454893678836944
F-1.1374152780449944
tp1905
asS'nLLLzPPPPkcdghfhjjlklmlmhfhxwvteswcasn_2010222110120'
p1906
(lp1907
(I1
I0
tp1908
a(F0.47505002257336937
F0.6067633506908279
tp1909
a(F15.868675213785416
F1.4078515859947396
tp1910
asS'nLLvvAAQQkachjjikilkmmlmjkllaxxmgjccfc_2002121101012'
p1911
(lp1912
(I6
I2
tp1913
a(F-0.06200383295175033
F0.30255857926939045
tp1914
a(F16.65395091852525
F-2.515981741057455
tp1915
asS'nLLvLQLPQkbeffjglmlkjklmxxxjsfqqhhoqoj_1022101010222'
p1916
(lp1917
(I4
I2
tp1918
a(F1.2888973629380758
F-0.7137958716162495
tp1919
a(F10.513497428368687
F-2.674511911868541
tp1920
asS'mLLLLvQQQbdefjhkilljklhrugqkiraapfv_120001211100'
p1921
(lp1922
(I3
I2
tp1923
a(F0.557670710070231
F0.017993198043283868
tp1924
a(F3.9920684305000154
F-0.6998128938361156
tp1925
asS'nLLLwvQQPkcdefihkljkmlmmhftaawxdubqgxh_2010220211110'
p1926
(lp1927
(I9
I1
tp1928
a(F0.6194982748168275
F0.3319419787161034
tp1929
a(F9.0641895470234
F0.22629252490940513
tp1930
asS'nLvLzMMPQkbegghiklkmmklmhmqgvrdpummthv_1200001211121'
p1931
(lp1932
(I6
I0
tp1933
a(F0.6271848636667161
F0.21939415633811662
tp1934
a(F20.08528423721805
F-1.3695105730090977
tp1935
asS'mLLvAPPAQbefhjgijkjlllhhxahvctxthck_120011111202'
p1936
(lp1937
(I6
I0
tp1938
a(F0.13342036884493338
F0.818948799965865
tp1939
a(F8.287972212471669
F1.584965453613285
tp1940
asS'kLLLMAPkbcgehghjjijtsdmjwoxdsw_2010222201'
p1941
(lp1942
(I8
I0
tp1943
a(F0.16704801992731566
F0.8587994719327032
tp1944
a(F22.486619111775077
F1.908188417716186
tp1945
asS'nLvLAwMMQkcggehijlmjklmmhtaqgoqtdpjbkk_2010222020112'
p1946
(lp1947
(I8
I1
tp1948
a(F0.7043112358710398
F0.4743733337543099
tp1949
a(F7.587277790402211
F-2.329337718198364
tp1950
asS'nLLLwLMAQkcdefhjikjlmmlmhftafheaunhdre_2010220211022'
p1951
(lp1952
(I12
I1
tp1953
a(F0.5906888818766706
F0.6064015536659171
tp1954
a(F4.74392542691432
F2.413329077562403
tp1955
asS'lLLvQLMQcbeghfijkijkkhhaaaaahxxww_12001111002'
p1956
(lp1957
(I1
I1
tp1958
a(F1.187058585707025
F0.08007696819785795
tp1959
a(F16.038408259636967
F2.861109789616699
tp1960
asS'nLLLLPwMQkbefgjhhimkklmmxxqhxbwbxrbbrg_1022101110220'
p1961
(lp1962
(I5
I0
tp1963
a(F0.3109867888316906
F-0.18591836369478895
tp1964
a(F5.6215214475707445
F-1.3393124186411578
tp1965
asS'nLLLLzAAQkbefgjkhlikmmlmxxqhxqghbarbbb_1022101110222'
p1966
(lp1967
(I0
I0
tp1968
a(F0.35069892336511815
F0.01893289058260101
tp1969
a(F8.022444030884783
F-0.35728945969540904
tp1970
asS'nLvvLAPQQkcgfihjmmlkmlklhtsrrvaeewedfd_2010211002210'
p1971
(lp1972
(I10
I3
tp1973
a(F0.6201422178426665
F0.20080036315451252
tp1974
a(F8.02439340532226
F3.1072533873411414
tp1975
asS'nLvLLLPQQkbegihjiimklmlmhiarrnnkpeiffs_1200001122221'
p1976
(lp1977
(I1
I1
tp1978
a(F0.8180322222308857
F0.21565612918311708
tp1979
a(F4.136819532899578
F2.865749070287587
tp1980
asS'nLLLwLwQQkcdefijmkljklmmhftahhmlmbbkcv_2010220211111'
p1981
(lp1982
(I7
I3
tp1983
a(F-0.23290968014634233
F0.5980294517981027
tp1984
a(F5.977241319348713
F-2.194180547575131
tp1985
asS'nLLLPLMLQkbcgefjhkjlmlmmtsdawqfdjsmfhl_2010222110102'
p1986
(lp1987
(I8
I2
tp1988
a(F1.456483857600803
F0.4061365094163103
tp1989
a(F18.12248139552959
F-1.762111380167658
tp1990
asS'nLLLLzQAPkbefgjihkkimlmmxxqhxogpibxoud_1022101110121'
p1991
(lp1992
(I1
I3
tp1993
a(F0.4027713567676856
F-0.19580246292297945
tp1994
a(F5.3855493636107985
F-1.116053825055142
tp1995
asS'nLLLLPwQPkbefgjhhillmmmlxxqhxbwbtixudb_1022101110221'
p1996
(lp1997
(I2
I2
tp1998
a(F-0.08329865232070602
F0.5981876671609615
tp1999
a(F4.7056342573460475
F-3.014904638503099
tp2000
asS'nLLLMLAMMkcdefghijklkmmmhftagftihxgtso_2010220200112'
p2001
(lp2002
(I9
I3
tp2003
a(F0.30403566290252365
F0.48384285001325605
tp2004
a(F14.525353618659468
F-1.2178586863890648
tp2005
asS'mLLLLPAAQbeggfjhiiklllhhquvacovaqhx_120011211002'
p2006
(lp2007
(I3
I3
tp2008
a(F0.5661976499325321
F-0.24649838112190042
tp2009
a(F7.030963920209419
F-0.18931786906035608
tp2010
asS'nLvLvLQQQkbeiklkimijklmmxlvnprgqgwwmlo_1022221110000'
p2011
(lp2012
(I7
I3
tp2013
a(F0.6065914625290543
F-0.562803943857615
tp2014
a(F11.033859582463327
F-0.08419401219515853
tp2015
asS'mvLALLMQQdcefhkijlljklrbbhsikshtbqs_201102220201'
p2016
(lp2017
(I8
I2
tp2018
a(F1.1018571068530196
F0.03345118045251021
tp2019
a(F8.616682975194502
F0.48547920438877146
tp2020
asS'nLLvLLMQQkcdhihjmhkkklmmhswvgrmnphduwk_1222011110220'
p2021
(lp2022
(I5
I2
tp2023
a(F0.35865641889571687
F0.44203525828650175
tp2024
a(F9.543926617829872
F-2.4912737081784444
tp2025
asS'mLLLwALQQcdgfghlkkljlkhfhafrqxbjbog_201022221110'
p2026
(lp2027
(I9
I2
tp2028
a(F0.5679510639567996
F1.2462913476966633
tp2029
a(F8.595870918638258
F1.8574428268983183
tp2030
asS'jLLLAMQcdefgfhiiihftadwaawn_201022011'
p2031
(lp2032
(I5
I0
tp2033
a(F0.6026329998726414
F-0.08561386495143877
tp2034
a(F9.302223963942446
F1.046764238472188
tp2035
asS'mLLLMPLMQbeffgihkklllkxxqphxotixudb_102210110221'
p2036
(lp2037
(I0
I2
tp2038
a(F0.839663306395221
F-0.4964507720403404
tp2039
a(F3.845367299958159
F-0.09162132980646027
tp2040
asS'nLvvLMQAQkceflgjklkkmlmmhaslvvvhwwahxq_2010211002211'
p2041
(lp2042
(I8
I2
tp2043
a(F1.6771584421623875
F1.324603379034427
tp2044
a(F10.565638152038872
F-2.4906954703771147
tp2045
asS'nLvLLPAMQkbeghikjjimlmlmxixvvxnjbaxjjg_1022220110122'
p2046
(lp2047
(I4
I3
tp2048
a(F0.040925230599997586
F-0.4012785663052395
tp2049
a(F14.25254288670209
F2.726082496408937
tp2050
asS'nLLLwLQQzkcdgfhjkkkijlmmqgqasmmlxmkahw_2101222211121'
p2051
(lp2052
(I9
I3
tp2053
a(F-2.4602116013430524
F-0.4458948433077001
tp2054
a(F19.15979901517414
F-1.0282535605778012
tp2055
asS'nLLLLvQQAkbdefihkjjjllmmdwigjjqeilpkaj_2101021222002'
p2056
(lp2057
(I12
I1
tp2058
a(F0.31597436804472556
F-0.01491767382860678
tp2059
a(F10.470601006213075
F-0.4760067985996281
tp2060
asS'lLLLLPQPcbeggfjhijkkkhhquvacoxluc_12001121100'
p2061
(lp2062
(I3
I3
tp2063
a(F0.5543155897551195
F0.27620512265445396
tp2064
a(F6.521719882617384
F-0.7516632576373671
tp2065
asS'nLLLwPAAAkcdefjhihjkklmmhftamfabmwwaxn_2010220211101'
p2066
(lp2067
(I6
I2
tp2068
a(F1.1941437604204905
F0.7059133657309102
tp2069
a(F17.892730938470766
F1.5452899910958233
tp2070
asS'nLLLvLMQQkbegkljikmlkmmlhhqaxjoxaxxxaa_1200112111000'
p2071
(lp2072
(I9
I3
tp2073
a(F-1.1183436298365157
F0.08675479502961769
tp2074
a(F24.791613412554096
F1.895493082426569
tp2075
asS'kLLLLAQkbefgigjijijxxqhwrqgebp_1022101112'
p2076
(lp2077
(I5
I0
tp2078
a(F0.8218192675425644
F-0.13830282975746253
tp2079
a(F7.174238454787784
F-0.7029455003255943
tp2080
asS'nLLPLvPPQkcdcfgkkimjlmlmhsraoxbjqgbqsx_1222010222221'
p2081
(lp2082
(I1
I0
tp2083
a(F0.14744220584703763
F0.3038214721417764
tp2084
a(F10.12585983374055
F0.7148704602943832
tp2085
asS'nLLLMvzQQkbdgfhlkjjmmlkmdwxxbdxdcvkrwc_2101021211102'
p2086
(lp2087
(I8
I0
tp2088
a(F0.46867403867808316
F0.22506725877881925
tp2089
a(F9.224111739444494
F-1.793890791143483
tp2090
asS'nLLLwLQPMkcdgfkihjijlmmmqgqaxxrxhwwxhq_2101222201001'
p2091
(lp2092
(I11
I1
tp2093
a(F0.6577182259476688
F-0.06531256031804325
tp2094
a(F11.56090704249108
F-0.2075814114974879
tp2095
asS'nvLALLLQQkecfgillkjmjkmmccaxjddkkxnbxn_0111100002221'
p2096
(lp2097
(I7
I2
tp2098
a(F0.4122657277881239
F0.5756743884183506
tp2099
a(F8.573253223604192
F-2.3486428666227144
tp2100
asS'nLLLLMwMQkacfhijjilmkmlmjkghmtqmoesxfx_2002121010001'
p2101
(lp2102
(I12
I1
tp2103
a(F-0.8350634857734897
F0.5641938480937129
tp2104
a(F14.189206894331159
F1.8848177954527223
tp2105
asS'mLvAvPQPQcfejghkjilkllumuobrmsfamqr_022111100001'
p2106
(lp2107
(I1
I1
tp2108
a(F0.05410293723179339
F0.059564943148722474
tp2109
a(F9.207372694890477
F-2.8951777317901466
tp2110
asS'nLvLALPQMkbehghkjjlljmlmhmheviapuexjcr_1200001212122'
p2111
(lp2112
(I3
I3
tp2113
a(F0.3003393955568125
F0.47349461226215317
tp2114
a(F8.011923185996844
F-1.5356925550282585
tp2115
asS'mvLLLAAQQcdgifjhlkjlklvvhthwnaegmqg_011112202211'
p2116
(lp2117
(I1
I1
tp2118
a(F0.8231524578434608
F-0.9143888081383075
tp2119
a(F9.671546899520981
F0.2870250895660012
tp2120
asS'nLLLMMMzMkcdgfhfihjklmmmqgqabgarqxxxxa_2101222211001'
p2121
(lp2122
(I0
I3
tp2123
a(F0.6249300177947649
F-0.005753791281690676
tp2124
a(F5.2018473524670386
F2.0073376460726133
tp2125
asS'nLLLvPQAAkbcghkgihjjklmmtsdktgrfmqfshr_2010222120012'
p2126
(lp2127
(I9
I3
tp2128
a(F1.695587251213629
F0.05853590329023751
tp2129
a(F10.491327837401473
F1.031895867575563
tp2130
asS'nLLLzLLQQkcdehgikkjllmmmhftxcexabgggrb_2010220111011'
p2131
(lp2132
(I4
I2
tp2133
a(F0.3456336001193052
F0.4154549344426895
tp2134
a(F7.320534087047376
F-1.8931693270396304
tp2135
asS'nLvvAAMAQkbgighkjjjmlmlmhxagjhgccqtfns_1200001111112'
p2136
(lp2137
(I1
I1
tp2138
a(F0.8567680421501844
F0.2549133280981602
tp2139
a(F5.0469170803308
F2.9118789154222293
tp2140
asS'jLLLAPQcdgfehhiiihfhaqiptef_201022200'
p2141
(lp2142
(I0
I0
tp2143
a(F0.162858701089009
F0.055210505809616686
tp2144
a(F4.137010975096963
F-1.9328197201291646
tp2145
asS'nLLLLPzQPkbeggfjiiklmlmmhhquvaovxaqcum_1200112110002'
p2146
(lp2147
(I8
I3
tp2148
a(F0.05831692866710195
F0.9348557393601881
tp2149
a(F23.919593741976524
F2.213842020304172
tp2150
asS'nLLLLwLQQkacfigilmmklmkljkglwdcwcwnoko_2002121012102'
p2151
(lp2152
(I4
I2
tp2153
a(F0.47264953261884934
F0.9840665309410132
tp2154
a(F11.691194509590641
F-2.6468031060849726
tp2155
asS'mLLLMLPAQcdefghkjijlllhftagfqaqoqtp_201022020022'
p2156
(lp2157
(I8
I2
tp2158
a(F-0.7494128435266983
F0.4396627554403629
tp2159
a(F11.886747101676544
F-0.839039803509773
tp2160
asS'mLLLMLPPQcdefghkjllklkhftagfqaknkfc_201022020020'
p2161
(lp2162
(I6
I1
tp2163
a(F0.6734087138097917
F0.26255096364139086
tp2164
a(F10.017642514806466
F-0.8338349852309266
tp2165
asS'nvLLLAPPQkefghijimlkkmlmghaherrumfglqk_1222211000100'
p2166
(lp2167
(I7
I0
tp2168
a(F0.45926030302004706
F-0.6279867711436966
tp2169
a(F5.259119241696961
F-0.9652877663529631
tp2170
asS'nvLALLAMQkcdfigjkikllmmmffadfrjbrluqxo_0222200111112'
p2171
(lp2172
(I6
I0
tp2173
a(F1.0729784241004565
F0.9904797061598826
tp2174
a(F22.357982312314466
F-0.3139615128320815
tp2175
asS'mLLLALQLQcdefgihjilkllqgmatmemkqqrf_210122111022'
p2176
(lp2177
(I8
I3
tp2178
a(F-0.4293245779508757
F0.11464647774393907
tp2179
a(F20.592337918433554
F-1.4100288622702442
tp2180
asS'nvLLLLPQQkcdhgjkjmklmklmwrarvsvqsjqrbl_1020211111002'
p2181
(lp2182
(I11
I2
tp2183
a(F-0.4368176681089714
F0.21079970076927335
tp2184
a(F6.741455559297635
F-1.670805341672536
tp2185
asS'mLvvLAQQQbgjhjhlikkjllxxnvvnafjsjtt_102222010100'
p2186
(lp2187
(I10
I0
tp2188
a(F1.3582861455062925
F0.9341354305656555
tp2189
a(F17.18429004307096
F-1.0620869941489177
tp2190
asS'nLLLvPMQMkbegfkhlkikjmmmhhqvacqxvxvhnv_1200112111002'
p2191
(lp2192
(I12
I0
tp2193
a(F0.8381542327977979
F0.24360915434690364
tp2194
a(F7.153300788561893
F-2.420702942847653
tp2195
asS'nLLLPLMAPkbcgefjhkikmlmmtsdawqfdlgqhsj_2010222110122'
p2196
(lp2197
(I4
I0
tp2198
a(F0.8728877007530629
F0.3312874147113437
tp2199
a(F7.111989299927964
F-0.7546054062049695
tp2200
asS'nLvLPzzQQkcfgehiikmmkllmllpibvcipscskf_1200001122122'
p2201
(lp2202
(I0
I2
tp2203
a(F0.4187643526229809
F0.3694387828907793
tp2204
a(F4.421846181385201
F1.195262575601854
tp2205
asS'nLLLLPPPMkbdgfghiilklmlmdwxgojkfarglfr_2101021221012'
p2206
(lp2207
(I10
I0
tp2208
a(F-0.23912645811156072
F0.5104556384653558
tp2209
a(F13.627314509829269
F1.8722423207271484
tp2210
asS'mLLLwAPMQcdgffikikjlllqgqagqqptonkf_210122220101'
p2211
(lp2212
(I10
I0
tp2213
a(F0.23646361002893032
F-0.48982009496546064
tp2214
a(F7.453357050226874
F0.10895352328887814
tp2215
asS'nLLLLzMMQkccefjiklmmjllmlnewanpttlhcvr_1200111212200'
p2216
(lp2217
(I7
I0
tp2218
a(F0.8499352609887145
F0.2109326561472121
tp2219
a(F7.0004407789737355
F-0.26274793373115907
tp2220
asS'lLLLMAPPcbcgehghjjjkktsdmjwoxdwqj_20102222012'
p2221
(lp2222
(I10
I1
tp2223
a(F0.43529890014769024
F0.14310992516357154
tp2224
a(F9.070600491852366
F0.1484164828387434
tp2225
asS'mLLLwPzQQbdgfgikjkjllldwxxoadqtkgwj_210102121101'
p2226
(lp2227
(I0
I2
tp2228
a(F1.3291383512135886
F-0.43015255796953894
tp2229
a(F14.256495716451054
F0.7941044155782859
tp2230
asS'nLLLwLLQQkcdgfjmimllkklmqgqalqutqrgggs_2101222211100'
p2231
(lp2232
(I6
I1
tp2233
a(F0.48533484887488915
F-0.28487636722873316
tp2234
a(F9.47867643042448
F-2.8117517135979004
tp2235
asS'mLLLwLQQPbdgfjhhijjklldwxxujkemkkqj_210102121220'
p2236
(lp2237
(I5
I3
tp2238
a(F0.2509570427043494
F0.5648609920557366
tp2239
a(F12.16935259322832
F0.4297995702322326
tp2240
asS'nLLLMLMPMkcdgfhiikjjlmmmqgqablmqhgbqti_2101222211012'
p2241
(lp2242
(I2
I0
tp2243
a(F0.936697136384233
F0.6912931972451178
tp2244
a(F15.18553312797079
F-2.5150941699218006
tp2245
asS'nLLvLAwQQkbehijkimjlklmmhhqjopkmftuivb_1200111122220'
p2246
(lp2247
(I9
I0
tp2248
a(F0.7168388943201934
F0.2463450752645868
tp2249
a(F8.244930724290487
F-0.553668391197882
tp2250
asS'nLLvMLQLQkbegfihjklmmllmxxaxosxxaaffff_1022101002211'
p2251
(lp2252
(I5
I2
tp2253
a(F0.6217646837049173
F0.11765971711044819
tp2254
a(F11.178100526014921
F2.9686314071772006
tp2255
asS'mLvvLAQQQbigikghjilkllluggvcsbjhwdd_022110000202'
p2256
(lp2257
(I11
I1
tp2258
a(F0.799390795125824
F0.904653977378483
tp2259
a(F14.946071921919776
F-0.8849051145261504
tp2260
asS'nvLLLPwQQkefgijkhkljmlmmghaeirrslkdumn_1222211000000'
p2261
(lp2262
(I3
I0
tp2263
a(F0.15017653374582682
F0.37525732846261006
tp2264
a(F17.703863599623013
F3.0498217675192003
tp2265
asS'lLLLLzQQcbeggjjhikikkhhquhtcoxvxg_12001121120'
p2266
(lp2267
(I6
I2
tp2268
a(F0.8862499064375938
F0.04950782051025099
tp2269
a(F6.912595587727562
F-2.0498890104159244
tp2270
asS'iLLLAQccdffgfhhhqgdatgqdm_21012210'
p2271
(lp2272
(I2
I0
tp2273
a(F0.80393604951595
F0.2204649627931745
tp2274
a(F6.978086367300282
F-0.17664224752326732
tp2275
asS'nLvLLPPPQkbehjijlkmkmlkmxldgvgdlaxaduv_1022221110002'
p2276
(lp2277
(I11
I1
tp2278
a(F-2.36970777735417
F1.225637241042572
tp2279
a(F42.33483741089679
F2.9770528304357367
tp2280
asS'mLvvMwQQQbhgglkgijlkklhhagaagfsuuuu_120000122222'
p2281
(lp2282
(I1
I1
tp2283
a(F0.41516724000182376
F-0.06897557276342217
tp2284
a(F5.365863525620218
F2.2773237815671896
tp2285
asS'mLvLALQMQbefeijkjklkllhiiigaththito_120000111222'
p2286
(lp2287
(I0
I0
tp2288
a(F-0.2949440877440794
F0.7498210639338132
tp2289
a(F15.664455685675359
F1.0964367937793924
tp2290
asS'nLvLwLMQQkcgghhjikjmlmlmqdacfgbdbhhwwv_2101222122011'
p2291
(lp2292
(I8
I2
tp2293
a(F-0.0016447382746344074
F0.07470851721055728
tp2294
a(F6.256869931589336
F2.7033981435166647
tp2295
asS'lLvLALQQccfghgjikjikkllierdwiantf_12000011122'
p2296
(lp2297
(I5
I0
tp2298
a(F0.9244757154744638
F0.5491684842706175
tp2299
a(F6.527752593178483
F-0.4844794398718349
tp2300
asS'nLLLLLAAQkacfhkjkjlkjlmmjkghtadlcgsghj_2002121010002'
p2301
(lp2302
(I3
I0
tp2303
a(F0.22929240964544223
F0.06230008721469282
tp2304
a(F12.963989597639076
F-0.31949830527692863
tp2305
asS'nLLLLLQwQkbdgfhikjkklmmmdwxgjjiiddvnwc_2101021221111'
p2306
(lp2307
(I9
I0
tp2308
a(F0.20146472724556025
F0.05001079431623238
tp2309
a(F10.050271863132041
F-2.402113187611651
tp2310
asS'nLvLLPLQQkcefjjiklikmmlmhtersjdmceaacb_2010211022120'
p2311
(lp2312
(I4
I1
tp2313
a(F1.2372376174472541
F-0.7055531388095152
tp2314
a(F9.342632052877251
F-2.5005301340301407
tp2315
asS'nLLLLLAPQkbcfhgkkimjkllmtshbfhhratfsss_2010222220100'
p2316
(lp2317
(I6
I1
tp2318
a(F0.31628955772906125
F0.043511324203876024
tp2319
a(F7.666423589376073
F-2.935584265181204
tp2320
asS'mLLLLzMQQbegfjgkjlikllxxmxxwhlhsxng_102210110022'
p2321
(lp2322
(I10
I0
tp2323
a(F0.5768345145197648
F0.2301660517989087
tp2324
a(F12.30159827397022
F0.856875596477417
tp2325
asS'lvLLzQMQceggfhjhikkjkfaaeqtgvulvp_02211100022'
p2326
(lp2327
(I8
I3
tp2328
a(F-0.056560754670834115
F1.02576644164751
tp2329
a(F18.272180803737754
F1.5126936521570955
tp2330
asS'nLvLAwMAQkaeefgklkljmlkmnxvvvamhdcxncn_1001221200021'
p2331
(lp2332
(I8
I2
tp2333
a(F0.8703817407168426
F0.8865929841165385
tp2334
a(F7.330217225008912
F2.8861242157315123
tp2335
asS'nLLLwLMMQkcdefhjikjlmmlmhftafheabnrfcc_2010220211020'
p2336
(lp2337
(I12
I0
tp2338
a(F0.49002869781976344
F0.5857536150052676
tp2339
a(F23.98742341736288
F-1.890755514061944
tp2340
asS'nLLLMPMzMkbeffgghijklmmmxxqphroxxqxqep_1022101120012'
p2341
(lp2342
(I7
I3
tp2343
a(F-0.032919193925285986
F0.1926106864032345
tp2344
a(F9.077698185122346
F1.5344562851827386
tp2345
asS'nLLLwLwQQkcdefhjkljmklmmhftafhambwsksv_2010220211011'
p2346
(lp2347
(I8
I2
tp2348
a(F0.5855041939486695
F0.8086068121734433
tp2349
a(F7.673019122866103
F1.4313219306717126
tp2350
asS'nLAvLALPQkbcbfhikljmkkmmxxnxajhhxhsovo_0110022120100'
p2351
(lp2352
(I0
I3
tp2353
a(F-0.697064591760608
F-0.1442766561203737
tp2354
a(F43.76041390573878
F2.758318257810298
tp2355
asS'mvLLLMMQQcdhjhgikljlklvvxpggrntbpbu_011112202200'
p2356
(lp2357
(I10
I2
tp2358
a(F0.8869173916242473
F0.35892241173053285
tp2359
a(F8.455648083713854
F-0.31893934242487415
tp2360
asS'nLLvLMPPQkbdjgjhilimklmmdwbwbjsqghdbss_2101022222110'
p2361
(lp2362
(I7
I2
tp2363
a(F1.0338382992966988
F-0.03738038747959741
tp2364
a(F13.516751965263014
F-1.2773631240295533
tp2365
asS'kLLLMPMkbeffgihijjjxxqphxoutiv_1022101102'
p2366
(lp2367
(I2
I2
tp2368
a(F0.10406143290715957
F0.518043089991578
tp2369
a(F4.266217499532247
F3.1221211548971426
tp2370
asS'mLLvLAPQQbeffjkkkilljlxxxjsdlhoxhoq_102210101012'
p2371
(lp2372
(I5
I3
tp2373
a(F0.37864111409731527
F-0.013783252475401372
tp2374
a(F11.47301420904218
F2.4329642506004245
tp2375
asS'nLLLLPwAQkbefgjhilkmlkmmxxqhxsohhxvnkv_1022101110220'
p2376
(lp2377
(I3
I3
tp2378
a(F0.6632642271199107
F0.428523581295798
tp2379
a(F7.305648625210334
F2.789059411924923
tp2380
asS'nLLLLLMMQkbegfjkljkjkmmmhhqaaaqxxxxaof_1200112110000'
p2381
(lp2382
(I2
I1
tp2383
a(F0.2333492118527943
F1.305030018902125
tp2384
a(F9.398560821381594
F-1.18751836546534
tp2385
asS'mvLLLPAQQeeegijkjlkkllfooosfjrprrit_022220011111'
p2386
(lp2387
(I8
I0
tp2388
a(F0.4574638187037356
F-0.04160066842318433
tp2389
a(F4.398082376603714
F1.4479306721814331
tp2390
asS'nLLvAMzPQkbefhhjiklmlmmlxxhawqbaqqgggg_1022111112200'
p2391
(lp2392
(I8
I0
tp2393
a(F0.5306383964558672
F1.026394165638987
tp2394
a(F8.420988557435054
F0.986309043860539
tp2395
asS'mLLLLLQAQbefghikjjklllxxqhsoqxqxxcc_102210111220'
p2396
(lp2397
(I3
I3
tp2398
a(F0.657972602322927
F0.4744798105706303
tp2399
a(F7.581398603126666
F2.9294578906551805
tp2400
asS'nLLvLPAPQkbehkgijmjkmllmhhlhkvbafihlrn_1200112211200'
p2401
(lp2402
(I7
I0
tp2403
a(F0.22381600322795972
F0.5112964526601703
tp2404
a(F7.5591743986505735
F-1.9894865644869673
tp2405
asS'nLLvLwPQQkbdfhkilijmmklmhrgrqkiknaapfv_1200012211100'
p2406
(lp2407
(I3
I3
tp2408
a(F0.05022673496900343
F-0.42634226871923636
tp2409
a(F7.694064839757811
F-0.8328761867202196
tp2410
asS'nvLLAzwQQkeefehkmllkmkmlcvicgaiiqxqxqq_0111122022111'
p2411
(lp2412
(I5
I0
tp2413
a(F0.31439011846376647
F0.12124475004295793
tp2414
a(F6.29964502762195
F-2.011126007708691
tp2415
asS'mLvLAwMQQbhgfghljjklklhqxtgkihuphcs_120000121112'
p2416
(lp2417
(I1
I1
tp2418
a(F0.6087851024503186
F0.013233082369204901
tp2419
a(F4.225605347133837
F1.9118969802122738
tp2420
asS'nLLLMvAAQkcdgfhkhljmllmmqgqabqrqgxcvlm_2101222211010'
p2421
(lp2422
(I2
I0
tp2423
a(F1.2023603657424193
F0.4847105539455682
tp2424
a(F9.639362858558721
F-1.9720830510615315
tp2425
asS'nLLvLMzQQkbdjgjhklimlkmmdwbwbjlqgpqdws_2101022222110'
p2426
(lp2427
(I7
I2
tp2428
a(F0.8549351136248903
F-0.013760817226117942
tp2429
a(F15.189662985001087
F-1.3924671720116286
tp2430
asS'mLvvAQLQQbgigijhlkjlklhxaggrrupwmec_120000111111'
p2431
(lp2432
(I0
I2
tp2433
a(F0.3958998971586824
F1.2775531296108726
tp2434
a(F13.40410404470687
F1.5917586662659018
tp2435
asS'nLAvLMMPPkbcbfhjjkllkmmmxxnxahaxqpqwgo_0110022120001'
p2436
(lp2437
(I0
I3
tp2438
a(F0.6359667668350792
F6.817177225472321
tp2439
a(F40.78021868056447
F2.3514311506143986
tp2440
asS'iLLLAQccdgfeghhhhfhaqfipa_20102220'
p2441
(lp2442
(I3
I1
tp2443
a(F0.15218110702859308
F0.3833053659270484
tp2444
a(F6.770887202269293
F-0.8843893373733832
tp2445
asS'mvLLLAMQQegfhjjkilkljlcqttmngcawdct_011112220020'
p2446
(lp2447
(I8
I2
tp2448
a(F0.7492178597168578
F-0.6187206481190635
tp2449
a(F5.906325389870179
F-0.10560795478261868
tp2450
asS'nLLLLwwQQkbegfhgjikmlmlmxxmxwwxsxwrbgb_1022101102222'
p2451
(lp2452
(I12
I2
tp2453
a(F0.6945452100327989
F0.45568241116079006
tp2454
a(F14.274886205911576
F0.6148163095569827
tp2455
asS'mvLALLPQQcdfikjililklkffadsrwtberdg_022220011111'
p2456
(lp2457
(I11
I2
tp2458
a(F-0.13885950771554093
F0.4618419609669998
tp2459
a(F9.48833383929338
F-0.3837539207351571
tp2460
asS'nLvLLMQwQkcehfhjihkmlmlmtilbbjvrxqxkkg_0112202201122'
p2461
(lp2462
(I1
I0
tp2463
a(F-1.2609526318227633
F-0.6803222851938534
tp2464
a(F15.861765149291436
F-1.0806464186769436
tp2465
asS'lLLLzwQQccdfeiijkjijkqceqqtpexqas_01112202110'
p2466
(lp2467
(I6
I2
tp2468
a(F-1.3395736076276894
F1.8447613125040747
tp2469
a(F17.006401477977747
F-2.948505946228108
tp2470
asS'nvLLPvMQQkefighmhjlklkmmftaxgqcvffssqq_2011022022110'
p2471
(lp2472
(I10
I1
tp2473
a(F0.572513597331341
F-0.16982032950049697
tp2474
a(F11.49214993431024
F1.413413401299856
tp2475
asS'nLLLMLAAMkcdgfhiihkjlmmmqgqablmrqgxxvc_2101222211100'
p2476
(lp2477
(I2
I0
tp2478
a(F1.1593810533239317
F0.40759442709037746
tp2479
a(F11.005038136824133
F-2.043541450039833
tp2480
asS'nLLLwLMQPkcdgfhjlkijmllmqgqasmqxmkawgr_2101222211102'
p2481
(lp2482
(I5
I3
tp2483
a(F-0.06118331765550885
F-0.4665935360159536
tp2484
a(F8.968278277731464
F-0.8840180744512472
tp2485
asS'nLLLLPAAMkbeggfjhiiklmmmhhquvacovaqqsj_1200112110022'
p2486
(lp2487
(I8
I3
tp2488
a(F0.16216769609998435
F1.218637482795889
tp2489
a(F11.609587960312725
F1.714062748379864
tp2490
asS'mLLLLPPAQccgihgjiikklllnickwmnjmrmj_120011121022'
p2491
(lp2492
(I5
I1
tp2493
a(F0.4387049810231559
F-0.1242766443595439
tp2494
a(F3.5184592576186917
F0.9959554291290913
tp2495
asS'mLLLMMMzQcdgfhfihjklllqgqabgarqxxvc_210122221100'
p2496
(lp2497
(I1
I3
tp2498
a(F0.4596233221081197
F0.8023478571609586
tp2499
a(F14.160441714309274
F0.9573201648695603
tp2500
asS'lLLLMLMQccdgfhiikkjjkqgqablmqthgs_21012222110'
p2501
(lp2502
(I0
I3
tp2503
a(F0.8765307813837449
F0.03236073191102599
tp2504
a(F3.601356369828729
F1.779496495653025
tp2505
asS'lLLLwPMQccdefjihikijkhftahhweuqwj_20102202112'
p2506
(lp2507
(I0
I1
tp2508
a(F0.5962158741462626
F0.19058568952273786
tp2509
a(F9.991030684231044
F-0.986363311135941
tp2510
asS'lvLLAMMQcefdgihijkjkkrloqagssxoai_02222100011'
p2511
(lp2512
(I0
I1
tp2513
a(F0.6461494862212737
F-0.6234631624058553
tp2514
a(F7.352063835469609
F-0.6760744649408129
tp2515
asS'mLLLvPQAQbefkhijihjlllxxqxsobgbgawg_102210111102'
p2516
(lp2517
(I0
I2
tp2518
a(F0.9457459701269081
F0.030014247784431437
tp2519
a(F3.946132847982985
F-0.08457552176965723
tp2520
asS'nLLvAzPMQkbegfjhkljmklmmhhhehfpeiphrof_1200112212201'
p2521
(lp2522
(I4
I0
tp2523
a(F0.46431679335895953
F0.7571178268457213
tp2524
a(F6.971379689933641
F0.2903048588735879
tp2525
asS'mvLLLPQPQcdigkhijkjlllvvpxnbcrnchxp_100001111122'
p2526
(lp2527
(I5
I1
tp2528
a(F-0.3138488682773757
F0.5684952322813169
tp2529
a(F12.378011770628579
F1.383756953570469
tp2530
asS'mLLvQLMPQbeghfijkllkklxxaaaqqxxnvvn_102211112200'
p2531
(lp2532
(I8
I3
tp2533
a(F0.3941015955364061
F0.2169647251377499
tp2534
a(F4.155647846575039
F-2.8135381046686603
tp2535
asS'nLvvAAMAQkcgehjjkilmjlmmhaqgooxkthgbkk_2010222002112'
p2536
(lp2537
(I0
I0
tp2538
a(F0.7566441922794237
F-0.03817208351646987
tp2539
a(F4.895442541193941
F-2.1230547603321717
tp2540
asS'nvLLAMvQQkefdgihlmklmlkmrloqagxxlapixf_0222210001211'
p2541
(lp2542
(I0
I1
tp2543
a(F0.6577279402739643
F-0.8082867684253706
tp2544
a(F6.936987902958322
F-0.6844434275846379
tp2545
asS'nLLLwMwQAkcdgfgjikikjlmmhfhafhhqqjwjhr_2010222211012'
p2546
(lp2547
(I6
I1
tp2548
a(F-0.48079136108740117
F0.9491818225672648
tp2549
a(F17.020068392251886
F0.6013655246854557
tp2550
asS'kLLLAMAkcdefgfhiijjhftadwaawan_2010220110'
p2551
(lp2552
(I6
I2
tp2553
a(F0.9799270321568544
F0.846101225928834
tp2554
a(F15.959253125247555
F1.577613869418468
tp2555
asS'nLLvLPPPQkbefjgkijlmklmmhhavkxkfmdxpsv_1200112211020'
p2556
(lp2557
(I11
I2
tp2558
a(F1.0972167030425013
F-0.09830521648192726
tp2559
a(F7.25216234070589
F2.5922049695848175
tp2560
asS'nvvLAAAPQkgffijhkmillmmluiddatkqrpuqih_0112220220021'
p2561
(lp2562
(I10
I1
tp2563
a(F0.4374663043193725
F0.0981186148294938
tp2564
a(F4.812481466181483
F-0.49644806065637676
tp2565
asS'mLvvALQQQcgfghijkllklkhhhsjjfattaqh_201021100210'
p2566
(lp2567
(I5
I3
tp2568
a(F1.0124232505152142
F0.4855211510864674
tp2569
a(F5.7882028113481505
F1.9629523705691434
tp2570
asS'mLLLLPQLQbeggfjhijlkllhhquvacoxhcnv_120011211002'
p2571
(lp2572
(I3
I3
tp2573
a(F0.6618830162334302
F0.20879922064438247
tp2574
a(F7.518476271637447
F-1.0084745964160398
tp2575
asS'kLLLLAQkacfighjjiijjkglwmmidfs_2002121011'
p2576
(lp2577
(I3
I1
tp2578
a(F0.21185138567599215
F0.06096724952201757
tp2579
a(F4.427692664311902
F-2.6297188943189505
tp2580
asS'nLvLvAQPQkbegjjkllimmjlmhignngttkdhfix_1200001122120'
p2581
(lp2582
(I10
I3
tp2583
a(F-0.5373788390212934
F0.03697937466109021
tp2584
a(F11.36081082423067
F1.464558592141468
tp2585
asS'lLLLzMQMcbcfghgjjijkktshxffhhxxhr_20102222112'
p2586
(lp2587
(I8
I1
tp2588
a(F-3.0133796695528714
F1.8009981623075855
tp2589
a(F27.98695709559243
F-1.4948976605264672
tp2590
asS'nLLLvPPQMkbcghkilljljkmmtsdktrlmmlqfsw_2010222120011'
p2591
(lp2592
(I9
I3
tp2593
a(F0.9471993865849413
F0.7521203163485077
tp2594
a(F12.048882262064149
F1.1189475572934005
tp2595
asS'nvLLzvQQQkefihmmjkjkmlllftagkcrrvvffss_2011022022211'
p2596
(lp2597
(I7
I0
tp2598
a(F0.10766922762955398
F0.7245929082011232
tp2599
a(F9.224904327547105
F0.46462515798724796
tp2600
asS'nvLLLPAMQkcdhijkiimlmlmlvvmagvggaiaaxt_0111122022011'
p2601
(lp2602
(I9
I1
tp2603
a(F0.8057370716325866
F-0.24285954604684987
tp2604
a(F9.238846825703066
F-0.7985645317696557
tp2605
asS'nLLLLPzPQkbeggfjikmmkllmhhquvaoxluvccv_1200112110000'
p2606
(lp2607
(I8
I3
tp2608
a(F-0.6032486053064758
F0.695394867443675
tp2609
a(F11.165320268436078
F0.8603893334310385
tp2610
asS'nLvLALwQQkbefeijkijlmlmmhiiigatvixgvwk_1200001112202'
p2611
(lp2612
(I8
I1
tp2613
a(F-0.5642755069165467
F1.7485947762196807
tp2614
a(F19.437222116926556
F1.0268918693988691
tp2615
asS'nLLvAzPAQkbegfjijklmlmmlhhhehsupedhkkw_1200112212201'
p2616
(lp2617
(I7
I3
tp2618
a(F0.8813082982027102
F-0.8194987309213353
tp2619
a(F8.515315169067183
F-2.460681036505457
tp2620
asS'nLLLvMPAQkbeeijjhkkjlmmmhhxjcckxesinbw_1200111221220'
p2621
(lp2622
(I2
I0
tp2623
a(F0.6966684556434133
F0.0956551135113834
tp2624
a(F7.154230715726985
F-0.8103101694922696
tp2625
asS'nLLvAzPQPkbegfgikljjkmmmhhhejspepqgrsj_1200112210200'
p2626
(lp2627
(I0
I0
tp2628
a(F0.4583819343391922
F0.1938571782179974
tp2629
a(F6.750610166021165
F1.858592628509497
tp2630
asS'nvLLLLQMQkeffkljilijkmmmghhtgwscfsvhhe_1222211000012'
p2631
(lp2632
(I10
I1
tp2633
a(F0.8839214151951615
F0.32159222935394705
tp2634
a(F4.672512185121022
F0.30605252807007094
tp2635
asS'nvLLMPvQQkegffjhlmjlmklmreueeaxxommhrr_1202001100222'
p2636
(lp2637
(I3
I3
tp2638
a(F0.2987685498403231
F-0.22806209045794215
tp2639
a(F7.268381285097318
F2.525802718508857
tp2640
asS'lLLLLAAQcbefgigjiikkkxxqhwrqgbxwb_10221011120'
p2641
(lp2642
(I9
I2
tp2643
a(F0.2044000691113863
F0.20431021228494964
tp2644
a(F8.775296157117053
F2.58903264135609
tp2645
asS'mLvLALAQQaeggjhiikllklnxgbartixcnnk_100122120000'
p2646
(lp2647
(I0
I3
tp2648
a(F-0.2896606951105353
F0.8525929185714627
tp2649
a(F14.159314921324851
F-1.411304316456472
tp2650
asS'mvLLLwQQQegihijllkjlkkcqxtcngggrwkc_011112220022'
p2651
(lp2652
(I3
I0
tp2653
a(F0.3298328775179685
F-0.44670061132502065
tp2654
a(F9.897759058491602
F0.5941835650068386
tp2655
asS'lLLLwwQQccdefhhjikkjkhftarwiexbbg_20102202111'
p2656
(lp2657
(I9
I2
tp2658
a(F0.8420791215501905
F1.2680064773397492
tp2659
a(F8.32880394643303
F1.7576361416015007
tp2660
asS'nLLLwvPQQkcdefhkkmjkllmmhftawxlmbbgggb_2010220211111'
p2661
(lp2662
(I10
I2
tp2663
a(F1.1209640490406223
F0.6502095845409269
tp2664
a(F7.153395397996815
F1.7982289267863354
tp2665
asS'lvLLPwQQcegighjkijkjkguauagnnggbg_21001002222'
p2666
(lp2667
(I9
I3
tp2668
a(F0.9205116580698396
F0.016104292333379473
tp2669
a(F8.059519496603661
F-1.0938284808560215
tp2670
asS'nLLLLzMQMkbefgjkikiklmmmxxqhxqgebphxud_1022101110221'
p2671
(lp2672
(I2
I2
tp2673
a(F-0.03638483340028171
F0.15730373199468078
tp2674
a(F5.961947572823701
F-2.9041052791829354
tp2675
asS'mvLLLMPQQcdhjikihlljklvvxpwnrbmhbbe_011112202201'
p2676
(lp2677
(I5
I0
tp2678
a(F0.03645770854426671
F0.21066964104945232
tp2679
a(F7.1029081884913055
F3.0788579390661095
tp2680
asS'nLvLvAPQQkbfghkkmkiljlmmhtgjgcickmfmtj_1200001122112'
p2681
(lp2682
(I1
I1
tp2683
a(F0.49793637393950624
F0.09742056391415232
tp2684
a(F4.6526345404875045
F2.880995031424569
tp2685
asS'mLLLwPAAQcdefjhihjkkllhftamfabmwwan_201022021110'
p2686
(lp2687
(I2
I0
tp2688
a(F0.22571570426805213
F0.19732141905268633
tp2689
a(F6.217921714216414
F-1.4736267341587783
tp2690
asS'mvLLAzMQQeegeijhjklkllcvecwwbviqxxg_011112202211'
p2691
(lp2692
(I3
I0
tp2693
a(F1.265887852005509
F0.6968899340329551
tp2694
a(F12.407962339585595
F2.1612134851257996
tp2695
asS'nLvAvMMQPkadfjkkjiillmmmjaqqhaxljcvdum_2002111000022'
p2696
(lp2697
(I0
I1
tp2698
a(F1.6025831659328993
F-0.46618276288845184
tp2699
a(F11.31295240998908
F-0.06892909370784604
tp2700
asS'mvLALAPPQcdfghfjilklklffaqxphbapjko_022220011112'
p2701
(lp2702
(I4
I0
tp2703
a(F1.1246490489674914
F0.06017468256263383
tp2704
a(F9.580378825657787
F2.7549946285449174
tp2705
asS'nLLLzMLPQkcdghghkjkllmmmhfhxfvmbbggnfc_2010222111112'
p2706
(lp2707
(I1
I2
tp2708
a(F0.3774993310054483
F0.7130944307199204
tp2709
a(F6.6469281035365455
F-1.3479618604794221
tp2710
asS'nLLLLPAPPkbeggfjhillmlmmhhquvacoluqvhx_1200112110002'
p2711
(lp2712
(I8
I3
tp2713
a(F0.20790173906176956
F0.47723592307255464
tp2714
a(F10.943643928306129
F0.8201355155794015
tp2715
asS'nLLvQLMAMkbeghfijkijlmmmhhhhaaahqxhhwr_1200112200122'
p2716
(lp2717
(I5
I3
tp2718
a(F1.570309559877726
F2.3381803948469546
tp2719
a(F15.860293481828018
F1.3419634634436508
tp2720
asS'mLvLAAPQPaeefgihijjkllnxvvvhcahnkxn_100122120001'
p2721
(lp2722
(I7
I3
tp2723
a(F0.666282918759027
F0.28655656735788715
tp2724
a(F8.759095241057599
F0.5530193974000831
tp2725
asS'nLvwLLPQQkadhkgliimmkmllnajawxihurnfkn_1001222200001'
p2726
(lp2727
(I0
I3
tp2728
a(F-0.27035410323549786
F0.6518687557127383
tp2729
a(F15.532845354718685
F-1.2087380845746
tp2730
asS'nLLLwvMQQkcdefhijllkkmmmhftaweqxbbbnnc_2010220211112'
p2731
(lp2732
(I9
I3
tp2733
a(F0.1324100318931437
F1.1511877257621692
tp2734
a(F14.630071329834207
F1.1609113741194417
tp2735
asS'nLLzvMzQQkcdcjilkklmmmlkhsrxxaallxboss_1222011021002'
p2736
(lp2737
(I11
I1
tp2738
a(F0.9197102556849811
F0.26328438924256137
tp2739
a(F9.816726283040808
F2.175918848550148
tp2740
asS'lLLLMPLQcbeffgihkkjjkxxqphxotirbb_10221011022'
p2741
(lp2742
(I2
I2
tp2743
a(F0.13611247995212394
F0.5105186199733424
tp2744
a(F3.9758879430013403
F3.071553246900425
tp2745
asS'nLLLwLQLQkcdgfkijjimmklmhfhahhteqsowwj_2010222210110'
p2746
(lp2747
(I6
I1
tp2748
a(F0.4360067578384473
F0.7839551164467916
tp2749
a(F16.866633188523394
F-0.3245369585254681
tp2750
asS'nLLLLAzPQkacfighkjllmkmmjkglwmmsrbijax_2002121011001'
p2751
(lp2752
(I8
I1
tp2753
a(F0.05911456769799421
F0.9298165219144449
tp2754
a(F8.381550567058074
F0.4006409417172917
tp2755
asS'nLLLLzzQQkccgihjlmjmmlkllnickxhtpulgkw_1200111210020'
p2756
(lp2757
(I2
I1
tp2758
a(F1.2094422959467301
F0.22977797333481503
tp2759
a(F12.336634533182984
F-2.0963756598708825
tp2760
asS'nLLLMvAAQkcdefgijjklmlmmhftagtxlxoewti_2010220201111'
p2761
(lp2762
(I2
I3
tp2763
a(F0.006786797614547299
F0.044329418785642394
tp2764
a(F6.06087845935407
F-0.04261053632538609
tp2765
asS'lLLLwLQQccdgfkihjkijkqgqaxxrxhhwr_21012222010'
p2766
(lp2767
(I9
I0
tp2768
a(F0.4149169177925226
F0.09959384218056383
tp2769
a(F7.351500684959622
F0.3343225198774964
tp2770
asS'nLvvALAQQkcefhijkmllmlkmhuhjjfdetteqhs_2010211002100'
p2771
(lp2772
(I2
I3
tp2773
a(F0.5658058464579884
F0.034441422258473714
tp2774
a(F9.510778045250733
F-0.2961702865052997
tp2775
asS'nLLLwvQPQkcdgfihjijklmmmqgqaxrxhwrssnk_2101222201000'
p2776
(lp2777
(I10
I0
tp2778
a(F0.378257487034804
F0.5027985850610247
tp2779
a(F14.400961404970554
F-1.1187035296668686
tp2780
asS'nLLLLMLPQkbcghiihmlmlmkltsdojofddkbnsw_2010222121011'
p2781
(lp2782
(I11
I3
tp2783
a(F0.5273845170487332
F0.3735636346927125
tp2784
a(F13.042598209656934
F2.953258803831695
tp2785
asS'mLLLLzPQQbegfjhiklklklhhqahooxxxxgg_120011211200'
p2786
(lp2787
(I1
I1
tp2788
a(F1.0394540678751112
F0.7371675133632684
tp2789
a(F6.68517665775063
F-3.1303292883887983
tp2790
asS'nLLPLvwQQkcdcfgkjlkjklmmhsrakuwjvfkraw_1222010212221'
p2791
(lp2792
(I9
I1
tp2793
a(F0.6621823305050715
F-0.06098138133576116
tp2794
a(F15.655649855334131
F0.26495876598710233
tp2795
asS'nLLLLvQQPkbefgihjlkkmlmmxxqhogxixibcrf_1022101112210'
p2796
(lp2797
(I1
I2
tp2798
a(F1.0000656327989672
F-0.05075361444680924
tp2799
a(F4.985263797982721
F-0.6635160316155222
tp2800
asS'nLLvLMQzQkbefhjikilkmlmmhhacnnxkpxqpjb_1200111122020'
p2801
(lp2802
(I4
I0
tp2803
a(F0.5966795702700881
F-0.0778572995354928
tp2804
a(F7.547249046522581
F0.38231737843422187
tp2805
asS'nLLLvLPQQkbcghihlkmljklmtsdcrfauaqwjss_2010222121010'
p2806
(lp2807
(I5
I2
tp2808
a(F0.5800731644524835
F-0.029931952666714508
tp2809
a(F4.151428333136607
F0.7390703104962488
tp2810
asS'mLLvPMMPQcdhigjhiljkllhshvbaovaxjso_100012112010'
p2811
(lp2812
(I5
I0
tp2813
a(F0.04832761230385593
F0.0694766620198726
tp2814
a(F7.659982666622478
F0.6813174798401018
tp2815
asS'mLLLLzQPQbeggjjhiilkllhhquhtcovagjs_120011211200'
p2816
(lp2817
(I6
I2
tp2818
a(F0.09064891330514438
F0.5567081211830102
tp2819
a(F6.68438780293316
F-2.0820247528097973
tp2820
asS'lLLLALAQcccgegijjjkkklntiaaxlvxxa_12001112201'
p2821
(lp2822
(I8
I1
tp2823
a(F0.34174865671699345
F-0.6125321011832295
tp2824
a(F11.88617495781022
F0.33821646316178827
tp2825
asS'mLLLPMMzQbcgefhihjkllltsdawsqfdqxwb_201022210120'
p2826
(lp2827
(I1
I1
tp2828
a(F0.2576567027534277
F0.21715910793339957
tp2829
a(F10.195582163197344
F2.6312534324662438
tp2830
asS'nLLLLzwQQkbefgjikmkmlmllxxqhxolhdahvno_1022101110122'
p2831
(lp2832
(I0
I0
tp2833
a(F0.6710414792876549
F0.7679025075268191
tp2834
a(F10.976545889918738
F-0.18349978412718307
tp2835
asS'mvLALvQQQcdfijkljijlklffadkkhobjtbx_022220011001'
p2836
(lp2837
(I6
I1
tp2838
a(F0.007696334899708415
F0.32814485137615756
tp2839
a(F10.305598386102197
F-1.0230135307146386
tp2840
asS'nLvvLMQPQkbggiilgjkmlmlmhagrragkkaeaea_1200001112220'
p2841
(lp2842
(I1
I1
tp2843
a(F0.5643463988584665
F-0.4137289724611983
tp2844
a(F4.585112918335872
F2.521227422592574
tp2845
asS'nLLvQLMAMkbeghfijkijlmmmhhaaaaahxxahrw_1200111100211'
p2846
(lp2847
(I0
I0
tp2848
a(F0.2616324779339551
F0.030779289916268125
tp2849
a(F11.789803224587837
F1.7035229028460053
tp2850
asS'mvLLzLQQQegihkihljjlklradhfrwvcjroc_022221011000'
p2851
(lp2852
(I8
I0
tp2853
a(F0.9553829342299539
F-0.35740084159365904
tp2854
a(F11.615335331004625
F0.3372968323042867
tp2855
asS'lLvLvQQQcbegjgjhkikkjhignrnrvkwkf_12000011221'
p2856
(lp2857
(I4
I2
tp2858
a(F0.9016198286852809
F0.4921678015371509
tp2859
a(F4.544680984622028
F-0.9524565747627911
tp2860
asS'nLLLwPzQMkcdefjihlkklmmmhftahhwmmgwhaq_2010220211112'
p2861
(lp2862
(I9
I1
tp2863
a(F0.13481945384059488
F1.155503542724406
tp2864
a(F11.969701878982393
F1.3719181140357384
tp2865
asS'nLLLPwPAMkbcgefhjkijlmmmloutgohqqvahvn_0221100011102'
p2866
(lp2867
(I10
I1
tp2868
a(F0.6866993080321306
F0.7887854914433836
tp2869
a(F11.448964550810793
F-2.7399473153815097
tp2870
asS'mLLLLPwQQbefgjhilklklkxxqhxsohhahvn_102210111022'
p2871
(lp2872
(I0
I0
tp2873
a(F0.660756529330489
F0.2548952665613979
tp2874
a(F7.295556289177644
F-0.24486834373486635
tp2875
asS'nLLLLzMQMkbefgikjljllmmmxxqhrqxiqthrof_1022101112222'
p2876
(lp2877
(I0
I2
tp2878
a(F0.615171917317387
F0.5434902722519394
tp2879
a(F8.46403855319575
F0.5114614023437736
tp2880
asS'nLLLMPvMQkbeffgihlmmmkllxxqphxoxxudbrg_1022101102201'
p2881
(lp2882
(I2
I2
tp2883
a(F0.1717240691692843
F0.5776351952546909
tp2884
a(F4.042665382987385
F3.0364521384812977
tp2885
asS'mLLLALQMPbcfeehhijjklltsmlaqllnnahw_201022211121'
p2886
(lp2887
(I10
I0
tp2888
a(F0.15615571209252058
F-0.013201683098988833
tp2889
a(F11.124688988751704
F0.14815008418283207
tp2890
asS'nLLPLvzQQkcdcfhiikmklmlmhsralhjojffjfo_1222010212212'
p2891
(lp2892
(I1
I2
tp2893
a(F0.20726458806244047
F-0.5445903170834475
tp2894
a(F5.102905920960653
F2.681926033509034
tp2895
asS'nLLLvMPPQkbcgiilhmjlkmmltsdjotfdmxgwws_2010222121101'
p2896
(lp2897
(I10
I0
tp2898
a(F2.18009727843553
F1.568095289029382
tp2899
a(F24.436150379899885
F-2.1983856503770234
tp2900
asS'mvLLLAPQQcdhijjljkkllkvvmtqwawaaixm_011112202211'
p2901
(lp2902
(I2
I0
tp2903
a(F0.13924485987890214
F0.1825224874697167
tp2904
a(F6.020415875599354
F0.4962829978682579
tp2905
asS'nLvvAAPMQkcgfhiklkjmjlmmhhhgrxaxwagqrg_2010211002001'
p2906
(lp2907
(I6
I0
tp2908
a(F0.9039464862471215
F0.5098305047582825
tp2909
a(F10.163266594015818
F1.602800054214139
tp2910
asS'nLvLAAPzQkcgfhiggkjmlmlmqdttwggupwcgvs_2101222100021'
p2911
(lp2912
(I5
I2
tp2913
a(F-0.3015229453494129
F0.01011400967818223
tp2914
a(F6.494841316819346
F2.1695923454447414
tp2915
asS'nLLLwLQLQkcdgfkijjimmllmhfhahhteqsowrj_2010222210110'
p2916
(lp2917
(I8
I2
tp2918
a(F-0.1047437932038193
F0.9046257838089988
tp2919
a(F7.852024608660219
F1.0269099148520973
tp2920
asS'nLLLLLQMPkbcfhgkkjilmlmmtshbfhhqsqfogr_2010222220111'
p2921
(lp2922
(I8
I2
tp2923
a(F0.32098890911679284
F0.8829958230187693
tp2924
a(F9.164466336781734
F-2.8407237487133874
tp2925
asS'nLLLAAMzMkcdffgfhijklmmmqgdatgqhqhqhkc_2101221022102'
p2926
(lp2927
(I6
I2
tp2928
a(F1.4290642898416142
F1.0027658189582296
tp2929
a(F10.10573898525971
F-0.4568669914717004
tp2930
asS'nLLzvPPAQkcdcgijkjkmmllmhsrvxpaduwjvwv_1222011022202'
p2931
(lp2932
(I4
I0
tp2933
a(F1.4240911419159463
F0.8842149348232308
tp2934
a(F10.139038522225365
F2.3230924347595936
tp2935
asS'mvLLLPMQQeeegkhjljjlklfooofsjpwwiwe_022220011111'
p2936
(lp2937
(I2
I3
tp2938
a(F0.3552643029016288
F-0.03080459895984014
tp2939
a(F7.517770571626426
F-1.7475431748346784
tp2940
asS'nLLvALPMQkbefhjljkmjlkmmhhxaaaxxhxaaww_1200111110002'
p2941
(lp2942
(I10
I0
tp2943
a(F0.4985695012968798
F-0.34324892905878607
tp2944
a(F5.190343639680594
F-0.6263652440308076
tp2945
asS'nLLLLLQMMkccgigkjikljmmmlnicwamnexqmqh_1200111210202'
p2946
(lp2947
(I11
I3
tp2948
a(F0.2541762260371552
F1.3240824890599336
tp2949
a(F12.133481291146387
F2.2590684457749903
tp2950
asS'nLLLvMAPQkacfikkklimmmlljkgmtqdcjnkgjs_2002121010002'
p2951
(lp2952
(I10
I3
tp2953
a(F0.6766651918439408
F0.22325408468304855
tp2954
a(F9.747648000582025
F1.3616110970179554
tp2955
asS'lLLLwPMQccdgfhjikkijkqgqajlxqthws_21012222010'
p2956
(lp2957
(I6
I1
tp2958
a(F0.5161423612684067
F-0.10201557400059708
tp2959
a(F8.09405143851989
F-2.685108141989852
tp2960
asS'nLLvzALQQkbehfhkkijmlkmmxxarrepbbhhhof_1022111111222'
p2961
(lp2962
(I0
I0
tp2963
a(F1.0130775672913381
F0.948885285053527
tp2964
a(F8.771556057042943
F-0.3008645475556592
tp2965
asS'nvLvAAMMQkcihjfijlkmlkmmvpaexjgaclpbxk_1202011120120'
p2966
(lp2967
(I5
I1
tp2968
a(F0.7895684590590425
F0.5787285746131494
tp2969
a(F20.811068515445623
F-2.048675828689116
tp2970
asS'mLLvAMzQQbefhggijkllklhhxavvcumhvck_120011111002'
p2971
(lp2972
(I1
I2
tp2973
a(F0.8351413070109892
F0.5028977637874531
tp2974
a(F7.399391167819249
F-3.0454051417964583
tp2975
asS'nLLLvPQAMkbefghhkjijlmmmxxqrbwxgbbaqqa_1022101111220'
p2976
(lp2977
(I3
I0
tp2978
a(F0.5407001141031487
F0.4159864124569405
tp2979
a(F13.187091506896131
F2.4939580725363713
tp2980
asS'mLLLLLMQQbedghikkjjkllxxwvnnaxqqxvj_211120000112'
p2981
(lp2982
(I6
I0
tp2983
a(F0.40687087524981197
F0.20889646100779097
tp2984
a(F13.811237122748377
F1.4249916410886714
tp2985
asS'nLLLLAAAMkacfighjjkjlmmmjkglwmmicsxqbr_2002121011002'
p2986
(lp2987
(I3
I1
tp2988
a(F0.29652562651917874
F0.04112848474862899
tp2989
a(F7.460859321829257
F-2.40742499301827
tp2990
asS'nvLALLAAQkcdfhgjkilklmmmffalfrjguruqqo_0222200111112'
p2991
(lp2992
(I12
I3
tp2993
a(F1.2673543981362707
F-0.08482390626154572
tp2994
a(F8.95532852071165
F-3.0317862127986217
tp2995
asS'nLLvMLQLQkbegfhijklmmllmxxaxfjxxaaoooo_1022101002211'
p2996
(lp2997
(I1
I3
tp2998
a(F1.0669323035317066
F0.5079486944670941
tp2999
a(F8.447646290500355
F-0.7172145175858818
tp3000
asS'mvLAAAvQQecfefhgkjlkllccacxacjfsjjo_011110002222'
p3001
(lp3002
(I8
I1
tp3003
a(F0.26703389413295353
F0.2737594922900144
tp3004
a(F4.559427983135731
F2.4766220527798177
tp3005
asS'lLLLwLQQccdefhjkikjjkhftafhdeaubs_20102202110'
p3006
(lp3007
(I10
I3
tp3008
a(F-0.011261234841673068
F0.3650588874324269
tp3009
a(F9.403515831449647
F-2.0341414485735796
tp3010
asS'nLLvLAAMQkbegjfiilkmlmlmhhucvwkdpamaok_1200112211210'
p3011
(lp3012
(I7
I3
tp3013
a(F1.0533756176885043
F-0.19419130142395524
tp3014
a(F14.04666036493042
F-3.0377587485614033
tp3015
asS'nLLLLPzQMkccgihgjlkllkmmlnickwmtmulrmj_1200111210202'
p3016
(lp3017
(I5
I3
tp3018
a(F0.8197201922601962
F-0.3945432904337047
tp3019
a(F8.234742632855044
F0.787333341160762
tp3020
asS'nLLPvAvQQkcdcfihkjjmkmmlhsraxxjjkvfjjn_1222010212112'
p3021
(lp3022
(I6
I0
tp3023
a(F0.9884016516314763
F1.2793932063466662
tp3024
a(F14.813970550126573
F2.7980931451242803
tp3025
asS'nLLLLPMMAkbdefgiikjkklmmdwignojpmtbvqj_2101021222202'
p3026
(lp3027
(I3
I0
tp3028
a(F-0.549485898765847
F0.9096567976254547
tp3029
a(F9.506145396983886
F1.5918616733602495
tp3030
asS'nLvAvQPPMkadfghjhklljlmmjaqwmalqldjxqj_2002111000022'
p3031
(lp3032
(I1
I1
tp3033
a(F0.5728999554698689
F0.9483115408722343
tp3034
a(F20.68186288716162
F2.6818689227808123
tp3035
asS'nLLLMzvQQkbefghijklmlmlmhhihuhtikkkkoo_1200112222011'
p3036
(lp3037
(I2
I3
tp3038
a(F0.7992792627934727
F0.525590195164025
tp3039
a(F15.287836133984161
F2.4168796057342097
tp3040
asS'nLvvQAPLQkcgfehijklmlmlmhhhaggaaaarrww_2010211000011'
p3041
(lp3042
(I6
I2
tp3043
a(F0.5723410376766139
F0.31953477748405495
tp3044
a(F6.478478370938914
F1.673959466295383
tp3045
asS'nLLLLMMQzkbegfhhgikjklmmxxmxwrwbhhwaqj_1022101102202'
p3046
(lp3047
(I12
I2
tp3048
a(F0.20081309443659714
F-0.31573644493427405
tp3049
a(F8.163828379024363
F-0.2813449292377553
tp3050
asS'nLAvLLPMQkbcbghhiklmmllmhhwhgggxapexbr_2112200110220'
p3051
(lp3052
(I7
I1
tp3053
a(F0.09733725417621668
F-0.44116725293079856
tp3054
a(F15.135813070437829
F-2.532930461939357
tp3055
asS'mLLLLPAAQcedihgiikjkllptrbvkjbhurlj_102212011022'
p3056
(lp3057
(I5
I0
tp3058
a(F0.48596945848532797
F-0.0681476406758558
tp3059
a(F6.7024669997731685
F0.11416889720054563
tp3060
asS'nLLLLzQwQkbeggjjhikmklmmhhquhtcoxhgcnv_1200112112002'
p3061
(lp3062
(I3
I3
tp3063
a(F0.6244274658460475
F0.30089571686448696
tp3064
a(F7.451442357049585
F-0.9070571121161325
tp3065
asS'nLvvAAMMQkcgehjjklkmkjmmhaqgooxxthegfj_2010222002112'
p3066
(lp3067
(I4
I2
tp3068
a(F0.8972898799194422
F0.5468760783383663
tp3069
a(F8.103915304465174
F2.8998909750469934
tp3070
asS'nLLLLPMAMkbegfjhgjikllmmxxmxxrwlbhkwhs_1022101100220'
p3071
(lp3072
(I11
I1
tp3073
a(F0.3533230417605849
F-0.04942589980135462
tp3074
a(F10.858529673796854
F0.48328422075395233
tp3075
asS'lLLLzLQQccdehgijikkjkhftxchhexabr_20102201110'
p3076
(lp3077
(I1
I2
tp3078
a(F0.6242849480874674
F0.689153668298525
tp3079
a(F7.124644272144602
F-1.3584960148107943
tp3080
asS'nLvLAwMPQkcfheiikmljlmlmqdtdwjeuldkvww_2101020122011'
p3081
(lp3082
(I11
I3
tp3083
a(F0.3876531067503939
F0.061093331333704586
tp3084
a(F10.861887959814354
F-0.19296283726453928
tp3085
asS'nLvvALPQQkcefglhkjlmklmmhuhvufawdmaitf_2010211002100'
p3086
(lp3087
(I12
I1
tp3088
a(F0.1391623494356629
F0.05568671921764198
tp3089
a(F5.185167672237384
F-1.1110606423144935
tp3090
asS'nLLLLzPQPkbeggjhikikmlmmhhquhcoxvxhvpt_1200112112001'
p3091
(lp3092
(I2
I1
tp3093
a(F0.1558651853180825
F0.692564894894943
tp3094
a(F5.192464289140189
F-0.5962978228320618
tp3095
asS'mLLvPLPQQcdhgjikjklljlhshgigqxqdhif_100012112201'
p3096
(lp3097
(I2
I2
tp3098
a(F-0.35689290083918895
F-0.8730008721265058
tp3099
a(F6.818354746697071
F1.9198343978186807
tp3100
asS'nLLzvPwQQkcdcgkklkijmmlmhsrvpuuiqnojsw_1222011021102'
p3101
(lp3102
(I12
I3
tp3103
a(F0.36407272860613027
F-0.1166533118549079
tp3104
a(F5.478766493328373
F-0.9624640887142674
tp3105
asS'nLLLLQzPMkbcegigijjllmlmtsxojosaqxshjr_2010222221102'
p3106
(lp3107
(I9
I1
tp3108
a(F0.5303430800433157
F0.03668863944547914
tp3109
a(F6.287770557083744
F-1.623868521510762
tp3110
asS'nvLLzMPMQkeghfhijlmkmklmgmllxkouabmomn_2100100221220'
p3111
(lp3112
(I0
I0
tp3113
a(F0.35591268419837596
F-0.04908913822218167
tp3114
a(F6.248785093393956
F2.510688337748961
tp3115
asS'nLLLLwPPQkacfiglikjmjmlmjkglwmdsntrija_2002121012101'
p3116
(lp3117
(I3
I1
tp3118
a(F-0.34013705633755065
F-0.024025404424494846
tp3119
a(F7.691166288457914
F-2.8505970850978355
tp3120
asS'mLLLALPAQcdgfejkijjlllhfhaqhhfosxte_201022200111'
p3121
(lp3122
(I2
I1
tp3123
a(F-0.22169285355278726
F0.6184666953697412
tp3124
a(F20.376777663798546
F2.3129809733501143
tp3125
asS'nLLvAMzPQkbefhggimlmlkmlhhxavvchhvvckk_1200111110022'
p3126
(lp3127
(I11
I3
tp3128
a(F0.47943499234159426
F-0.5140442125311407
tp3129
a(F13.895660731464464
F-2.922448940777374
tp3130
asS'nLLLvPQAMkbefkhijihjlmmmxxqxsobgbgaxlm_1022101111021'
p3131
(lp3132
(I0
I2
tp3133
a(F0.9318549285706245
F0.019495550955834443
tp3134
a(F3.829942964651913
F-0.10138939800450966
tp3135
asS'nLLLwPMAMkcdefjihikilmlmhftahhweuqhqrj_2010220211220'
p3136
(lp3137
(I0
I1
tp3138
a(F0.5114288197890142
F0.30796353107846863
tp3139
a(F10.818526958788086
F-0.9535492981293676
tp3140
asS'nLLLMMPzMkcdefghhjiklmmmhftagofqaxqxdu_2010220202100'
p3141
(lp3142
(I0
I0
tp3143
a(F0.44827496236943565
F-0.0005938423843378954
tp3144
a(F4.412567732442658
F-2.1288402496970917
tp3145
asS'nLLLMLMPPkcdefgjikikmlmmhftaghtmqghwld_2010220201102'
p3146
(lp3147
(I0
I0
tp3148
a(F0.18722788329415577
F0.031367087324012166
tp3149
a(F3.682775024015247
F-2.0530887613413635
tp3150
asS'nLvvLAAQQkcghiighljmklmmtegonnguftwetn_0112000200121'
p3151
(lp3152
(I12
I1
tp3153
a(F2.026967479096008
F0.3972285108578284
tp3154
a(F25.450514637764414
F-1.2789428758721637
tp3155
asS'nLLLLPPPPkbdefhihkjllmmmhrugvvkhpxjdme_1200012111120'
p3156
(lp3157
(I6
I2
tp3158
a(F0.16497239303078318
F-0.15564075809889555
tp3159
a(F8.452873496477117
F-2.740827723273007
tp3160
asS'nLLvLAPAQkbefjhilkikmlmmxxxffgmmsihxkk_1022101010112'
p3161
(lp3162
(I0
I1
tp3163
a(F0.47891838423428995
F-0.12943817737502245
tp3164
a(F17.969849384625945
F-1.7857241586020423
tp3165
asS'mLvLALQPQcfghgjikiklklllierdwintrfr_120000111222'
p3166
(lp3167
(I10
I0
tp3168
a(F0.5579360341023493
F0.6034947182892942
tp3169
a(F6.238671400796155
F2.8052193276820865
tp3170
asS'nLLLLzQPMkbeggjjhiilkmmmhhquhtcovagqhx_1200112112002'
p3171
(lp3172
(I3
I3
tp3173
a(F0.5157103988205644
F-0.3282251983702296
tp3174
a(F6.7613393444171495
F-0.12623336492672282
tp3175
asS'nvLLLLPQQkefijihikmlklmmrdmerwcsavfwmi_1202001120012'
p3176
(lp3177
(I2
I1
tp3178
a(F0.5313867009439455
F0.670078678719884
tp3179
a(F9.061306809628611
F-1.8688238524498948
tp3180
asS'nLLLwLAQMkcdgfjihklkjmmmqgqalxreqfwlit_2101222201012'
p3181
(lp3182
(I1
I1
tp3183
a(F0.5815996299094366
F0.6732900675392302
tp3184
a(F13.010016498061805
F1.771019823335591
tp3185
asS'mLLLMvPQQcdefglijkkllkhftagqilxjksg_201022020112'
p3186
(lp3187
(I5
I1
tp3188
a(F0.747548763199489
F0.4003425547995389
tp3189
a(F6.520654636027842
F2.029728059409457
tp3190
asS'mLvLwMMQQcggfhjijlklklqdascsbjtahuc_210122212211'
p3191
(lp3192
(I1
I3
tp3193
a(F0.1704400262095579
F0.9463381757579719
tp3194
a(F8.210603967353414
F2.1243154381551426
tp3195
asS'mLLLMLAMQcdefghijklkllhftagftihxgpd_201022020011'
p3196
(lp3197
(I9
I3
tp3198
a(F0.025828058169714976
F0.5039943455311113
tp3199
a(F11.956578326497764
F-1.079140365712936
tp3200
asS'nLvLvQQMPkbegjgjhkilmlmmhignrnrvktqxdk_1200001122120'
p3201
(lp3202
(I2
I0
tp3203
a(F0.705607913173938
F0.5460797307641588
tp3204
a(F4.514609771019503
F-0.45734575823773177
tp3205
asS'mvLALLPQQcdfhkjhlijkllffalsrrtgwrdi_022220011111'
p3206
(lp3207
(I6
I1
tp3208
a(F0.9838112733587032
F0.15469723349727432
tp3209
a(F7.387835311769661
F-1.2010564321916115
tp3210
asS'nLLvMvPQQkcdfhimjmjlkklmhsawrhihpuufgb_1222011102222'
p3211
(lp3212
(I0
I0
tp3213
a(F0.25524787980101976
F0.5821894146603972
tp3214
a(F4.719158214239918
F0.5586887562621372
tp3215
asS'mLLLAPPzQcdgfehhjiklllhfhaqiphfxhjf_201022200112'
p3216
(lp3217
(I2
I1
tp3218
a(F-0.22353686911640885
F0.40419709698188966
tp3219
a(F19.35073937810223
F2.3221367941964
tp3220
asS'nLLvLLPQQkbdjjmiklkilmlmdwbbmflulfuqdk_2101021122111'
p3221
(lp3222
(I10
I0
tp3223
a(F-0.47830103221174486
F0.9074997336125459
tp3224
a(F34.24822694212597
F-1.92622454754806
tp3225
asS'nLLLMLzMQkcdefghkllklmmmhftagfqhrkgmum_2010220200212'
p3226
(lp3227
(I12
I0
tp3228
a(F0.36878689856620006
F0.3528337830957179
tp3229
a(F9.559118748090345
F-3.1231953161243493
tp3230
asS'mLvLALMQQcfefikhlikjllhduhkujerhwjo_201021102100'
p3231
(lp3232
(I2
I1
tp3233
a(F-0.22434209035794886
F1.47610345081956
tp3234
a(F11.740418244399383
F0.43127696708897384
tp3235
asS'mLvvLAQQQbgjhjhlkiilklxxnvvnaosjpjp_102222010100'
p3236
(lp3237
(I1
I0
tp3238
a(F-0.6743831626463668
F1.174697224185113
tp3239
a(F23.92440731940423
F1.27499495408368
tp3240
asS'nLLLzvPQQkcdghijjllkmmmlhfhxhtexabbrnr_2010222110101'
p3241
(lp3242
(I5
I2
tp3243
a(F1.231905200908095
F-0.012961743442024538
tp3244
a(F6.507186334889746
F2.0081175727616483
tp3245
asS'nLALLvzQQkcbbegklmijkmlmqqjnailernkwvk_0220012120202'
p3246
(lp3247
(I9
I3
tp3248
a(F0.792884448435144
F-0.19571374962851049
tp3249
a(F8.330432921089843
F-3.022593229575655
tp3250
asS'nLLvAzPPQkbefhjilljkmkmmxxhaxbialeqnrg_1022111110220'
p3251
(lp3252
(I3
I3
tp3253
a(F0.0242463907364634
F0.2296384369912547
tp3254
a(F6.955189311820991
F2.703453929805751
tp3255
asS'nLLLLvAQQkacfihljjljmmmljkglxtqcwsbngk_2002121012210'
p3256
(lp3257
(I8
I2
tp3258
a(F0.22043614086926572
F0.6691922849009505
tp3259
a(F9.514493302583084
F-1.6249301866806949
tp3260
asS'nLvvAAMPQkcgehjjkmklkjmmhaqgooxeteegrw_2010222002111'
p3261
(lp3262
(I1
I2
tp3263
a(F0.4171075069256599
F1.6350904816573697
tp3264
a(F13.492507201368426
F-2.5163250499713863
tp3265
asS'nLLLvLAQQkacfikhmkmjmklljkgapdlcojsnnr_2002121010220'
p3266
(lp3267
(I2
I3
tp3268
a(F0.8126965867495137
F0.4891990621544273
tp3269
a(F14.324561162445345
F1.6664661088096417
tp3270
asS'nLvLQLMLQkbehfgjiklmlmlmxiaixaxxssvvff_1022220110100'
p3271
(lp3272
(I12
I1
tp3273
a(F0.4737285120925393
F-0.20789395400706828
tp3274
a(F5.1849787103070195
F-0.17038860760224236
tp3275
asS'nLLLMLPMPkcdefghkjikmlmmhftagfqaqkxmoj_2010220200221'
p3276
(lp3277
(I3
I1
tp3278
a(F0.47438648429582303
F0.8401365356435938
tp3279
a(F14.287838946127367
F-0.889060410422445
tp3280
asS'kLLLMLQkcdefghjjiijhftagfduipo_2010220200'
p3281
(lp3282
(I6
I1
tp3283
a(F0.5733131192956181
F0.21886076440534533
tp3284
a(F9.17302845038562
F-0.8768306995870928
tp3285
asS'nLLvQLMLQkbeghfijklmlmlmhhaaaaahnnnngg_1200111100200'
p3286
(lp3287
(I5
I0
tp3288
a(F3.663560723829626
F4.310048373412158
tp3289
a(F19.297939209062807
F-1.811751152851616
tp3290
asS'kLLLwPQkcdefjihjijihftahhweeqq_2010220211'
p3291
(lp3292
(I6
I0
tp3293
a(F0.7672135074106371
F-0.2279278201254757
tp3294
a(F7.590196965792645
F-0.5741113219804371
tp3295
asS'nLLLwzMMQkcdgfhillmklmkmqgqajxqtsjswgo_2101222201000'
p3296
(lp3297
(I6
I1
tp3298
a(F0.5157318672911174
F-0.2142966626052545
tp3299
a(F8.016987989329717
F-2.6131346839503458
tp3300
asS'lLvLAAPQccgfhiggkjjkkqdttwggudpis_21012221000'
p3301
(lp3302
(I6
I2
tp3303
a(F-0.14772583860152322
F-0.13692522706191373
tp3304
a(F7.541134985440806
F2.869381333222349
tp3305
asS'mLLLvAQMQbefijkjihjlllxxqwwqbgbghsj_102210111122'
p3306
(lp3307
(I5
I0
tp3308
a(F1.0258028585581007
F-0.3150471640663529
tp3309
a(F7.590964070476063
F-0.9838093461879001
tp3310
asS'mLLLMzPMQcdefgikkjlkllhftagpqtdckjw_201022020120'
p3311
(lp3312
(I1
I1
tp3313
a(F0.7345847274494242
F0.8055009527233077
tp3314
a(F18.435126965136345
F2.0046240887807265
tp3315
asS'nLvLLMMAQkcehfhjlkljlkmmtilbbjumhfaicj_0112202201112'
p3316
(lp3317
(I8
I1
tp3318
a(F-0.42025442367688615
F-0.09010338759744001
tp3319
a(F29.726547086364643
F1.665302285028641
tp3320
asS'mLLLLPMPQbefgijijjlkllxxqhrdoxqxhrg_102210111220'
p3321
(lp3322
(I4
I1
tp3323
a(F0.8775581132586622
F0.6192087881444156
tp3324
a(F6.336512751865289
F1.9464733978093078
tp3325
asS'kvLLAPQkeefehgijijjcvicggrwnnb_0111122022'
p3326
(lp3327
(I7
I2
tp3328
a(F-0.30968272420525456
F0.4913940007534558
tp3329
a(F7.383881704112315
F-1.574873679338079
tp3330
asS'kvLLPAQkefhgiihjjhjftuxhdgkccf_2011022021'
p3331
(lp3332
(I4
I0
tp3333
a(F0.250000000000004
F0.6793450742549557
tp3334
a(F5.598729504377515
F-2.1589424582055003
tp3335
asS'nLLvLAzQQkbegjfikjilmlmmhhucvkpffxmbjj_1200112211221'
p3336
(lp3337
(I0
I0
tp3338
a(F0.5303246219814471
F0.0020903504062552833
tp3339
a(F8.329074981637346
F1.5486526047233298
tp3340
asS'nLLvAALQMkbegfhglklklmkmhhheojlemmihnw_1200112212011'
p3341
(lp3342
(I10
I3
tp3343
a(F-1.556337635832322
F-0.4181592376596109
tp3344
a(F13.97569226553839
F-1.4115567398566247
tp3345
asS'nLLLLzMPQkbefgjikkmjlkmmxxqhxopixuhbrg_1022101110120'
p3346
(lp3347
(I4
I1
tp3348
a(F-0.2716878910709231
F0.8714519495132729
tp3349
a(F11.695996670060392
F2.3866893049815996
tp3350
asS'nLLLvPMQMkbefikikjjlimmmxxqrdoxgbhbwjs_1022101111222'
p3351
(lp3352
(I4
I1
tp3353
a(F0.8160814982651026
F0.6580790634918702
tp3354
a(F5.410836111488943
F2.241473910509879
tp3355
asS'mLLvLLQQQbcijgllkjhjkltsoofhhqsnsqf_201022211201'
p3356
(lp3357
(I11
I3
tp3358
a(F0.2594744092726702
F0.5984848381999862
tp3359
a(F10.092660301502152
F1.6349107307379325
tp3360
asS'nLLLLLQPMkbefghikjklkmmmxxqhsoqxxhxqqa_1022101112220'
p3361
(lp3362
(I10
I1
tp3363
a(F0.6250906187314597
F0.27841729431007745
tp3364
a(F6.622611375902313
F-2.6099831781184784
tp3365
asS'nLvLwLQAQkcggikjhlikmlmmhtarxokqwqdpcw_2010222022102'
p3366
(lp3367
(I3
I0
tp3368
a(F0.891970239265924
F2.6379498831779062
tp3369
a(F15.862370666102063
F-0.7676704556963982
tp3370
asS'nLLLvPMMQkbefikikjlmmlmlxxqrdoxghxdhdr_1022101111220'
p3371
(lp3372
(I4
I1
tp3373
a(F0.9272544688551492
F0.6570975778648753
tp3374
a(F6.015857716633771
F2.01613435272729
tp3375
asS'nLvLwPzQQkcggjijjimkllmmhtaorofwtehrrb_2010222022111'
p3376
(lp3377
(I3
I0
tp3378
a(F0.11926325032861029
F3.094757500120229
tp3379
a(F16.442381194985725
F-0.8003825232047357
tp3380
asS'mLvLAwMQQcfheiikjjllklqdtdwjelelacw_210102012201'
p3381
(lp3382
(I11
I3
tp3383
a(F0.16381966560289216
F-0.09647054681779325
tp3384
a(F11.884477840368364
F0.22567622975605375
tp3385
asS'nLLvQzPLQkbeghfikjlmmllmxxaaaxipfjcwvr_1022111102200'
p3386
(lp3387
(I4
I1
tp3388
a(F0.16881130437068387
F1.6325077451483796
tp3389
a(F13.21089281280809
F2.189325710034624
tp3390
asS'mvLALPMPQecfggjgikllklccaxxvcfaqdmo_100001122100'
p3391
(lp3392
(I11
I3
tp3393
a(F0.42688778934235105
F1.5068297733671985
tp3394
a(F14.640105190104608
F-2.2990594859850737
tp3395
asS'jLLLAAQcdffgfhiiiqgdatgqhkc_210122102'
p3396
(lp3397
(I5
I2
tp3398
a(F0.1112184804231476
F0.03504288439099108
tp3399
a(F6.962654151652446
F3.0345036236003233
tp3400
asS'mLvLLMPQQcehfhiljkilkltilbbvukxjtin_011220220111'
p3401
(lp3402
(I1
I3
tp3403
a(F0.38820482560789127
F-0.0553864879979829
tp3404
a(F4.212564993115847
F0.5072767233275809
tp3405
asS'nLvLLLMQQkbhggigkljmlkmmxmxbvbuxjlueff_1022220110000'
p3406
(lp3407
(I3
I2
tp3408
a(F0.7378096193454029
F-0.2175150830084029
tp3409
a(F10.3766707707675
F-0.3171073243397296
tp3410
asS'lLLvQLMQcbeghfijkijkkhhhhaaahqxrw_12001122001'
p3411
(lp3412
(I5
I3
tp3413
a(F0.9652235795424079
F1.9222413430608136
tp3414
a(F12.487432342369079
F1.5213366384923728
tp3415
asS'mvLLAzPQQeefehijliklklcvicgrrevxxqb_011112202211'
p3416
(lp3417
(I5
I0
tp3418
a(F0.5032431131389161
F-0.015473465761565497
tp3419
a(F4.886279980068488
F-1.9541534096722402
tp3420
asS'lLLLALQMcbcfeehhijjkktsmlaqllnnar_20102221112'
p3421
(lp3422
(I8
I2
tp3423
a(F0.40683588946924276
F1.377988769720239
tp3424
a(F23.396430096816268
F-1.1432826057039367
tp3425
asS'nLLLwvQMQkbcfeljijkkjmmmxcxeaxuexkoffj_1022211010221'
p3426
(lp3427
(I3
I1
tp3428
a(F0.7733605800644318
F0.0720148060555707
tp3429
a(F10.189542732732948
F-0.514084329040065
tp3430
asS'lLLLLMPQcbcghiikhjjkktsdojotfqmxs_20102221210'
p3431
(lp3432
(I10
I0
tp3433
a(F-0.14678512135198374
F0.1599851160708243
tp3434
a(F9.927746022042472
F1.5331705826042858
tp3435
asS'lLLLLPAQcbeggfjhiikkkhhquvacovajs_12001121100'
p3436
(lp3437
(I3
I3
tp3438
a(F0.4384563024239178
F-0.038865456338855964
tp3439
a(F7.142044385858435
F-0.1903815528910032
tp3440
asS'mLLLvLQQQbcghiihlkljkltsdcsrfauqwjs_201022212101'
p3441
(lp3442
(I5
I2
tp3443
a(F0.6173314824484906
F0.015043827205114085
tp3444
a(F4.99932806868939
F0.7166479272283083
tp3445
asS'mLLLLzQPQccghikhjikllllnhbgdnprhrnf_120011111200'
p3446
(lp3447
(I3
I0
tp3448
a(F0.7086145417193472
F-0.21323457537330845
tp3449
a(F9.667230112790401
F2.3471892869077475
tp3450
asS'mLLLLMPAQacfigihikjllljkglwqldfnxip_200212101201'
p3451
(lp3452
(I3
I0
tp3453
a(F-0.2065087281945216
F0.5850635978569222
tp3454
a(F11.273153986057391
F-1.2942239605084465
tp3455
asS'nLLLLzMPQkbefgiijkllmkmmxxqhroxithbcfg_1022101112120'
p3456
(lp3457
(I1
I2
tp3458
a(F0.988056955631385
F0.17580594483994957
tp3459
a(F5.328607594552904
F-0.35894908484213345
tp3460
asS'nvLALzLQQkcdfgfjmlljmkmlffaqprpiiwiink_0222200111111'
p3461
(lp3462
(I6
I1
tp3463
a(F-0.21892932544918625
F0.5515749757831656
tp3464
a(F9.691347258567625
F0.024893440503903973
tp3465
asS'kvLALPQkcdfgfjhijijffaqpossrgw_0222200111'
p3466
(lp3467
(I6
I1
tp3468
a(F-0.061350619217695655
F0.3907954151743101
tp3469
a(F8.900731947578135
F-0.24223705789066838
tp3470
asS'mLLvAwQMQbegfijhkjlkllhhhecxfptphjo_120011221021'
p3471
(lp3472
(I4
I0
tp3473
a(F0.862094840723141
F0.6160460559424984
tp3474
a(F7.075444971595237
F-0.11787075494478758
tp3475
asS'mLvLLPPQQbegjihkiilkllhianrrankpudf_120000112221'
p3476
(lp3477
(I1
I1
tp3478
a(F0.8149551512473974
F0.06909751839137987
tp3479
a(F3.8742949022345976
F2.851566098129554
tp3480
asS'nvLLLwMQQkefgihmhjklklmmftxhgqcnsffshh_2011022022110'
p3481
(lp3482
(I2
I1
tp3483
a(F0.4199326801511002
F0.11142495153646546
tp3484
a(F7.658553384633066
F-0.6092001637361701
tp3485
asS'nLLLMLMMPkcdefghijkjmlmmhftagftaukllrk_2010220200111'
p3486
(lp3487
(I11
I1
tp3488
a(F0.2045587372337986
F0.21337580191870817
tp3489
a(F6.640969249031731
F-1.3100714622196357
tp3490
asS'mvLALLPQQcdfhglhijkkllffalfargwrbxx_022220011112'
p3491
(lp3492
(I10
I2
tp3493
a(F0.0883551755974978
F0.22837422043736638
tp3494
a(F8.850483869988382
F1.1203716264329253
tp3495
asS'mLvMLMMMQbfefghjkjklklxiptvvehtxqcj_102222110122'
p3496
(lp3497
(I5
I3
tp3498
a(F0.14277203375925548
F0.42892110033578246
tp3499
a(F11.231217652552635
F1.220500337541952
tp3500
asS'kLLLAPPkcdgfehhjijjhfhaqiphffj_2010222001'
p3501
(lp3502
(I0
I0
tp3503
a(F0.19875624121005672
F0.07282555941161484
tp3504
a(F4.635350408012094
F-1.9586080603499232
tp3505
asS'mLLLwLMQQcdefihiliklklhftahweuqnnkn_201022021112'
p3506
(lp3507
(I11
I1
tp3508
a(F0.5570980930288145
F0.3006509424674846
tp3509
a(F8.834572332045774
F2.952038370982267
tp3510
asS'nLLLwPMAPkcdefjihikimlmmhftahhweuqiisj_2010220211222'
p3511
(lp3512
(I7
I3
tp3513
a(F0.36304988100826313
F0.0830572372018711
tp3514
a(F6.392921817706755
F2.5268157740182744
tp3515
asS'mLLLLLAQQbcghjkilkljjltsdotxrqmaqto_201022212010'
p3516
(lp3517
(I8
I3
tp3518
a(F0.9688932066166946
F0.3178970478236215
tp3519
a(F8.226777365896483
F-1.0580719493632318
tp3520
asS'kLLLLQPkbcefihhjijjtsuwjckuoul_2010222121'
p3521
(lp3522
(I3
I3
tp3523
a(F0.07487933776984618
F-0.16234334708227546
tp3524
a(F8.703187627457599
F2.7959938663891952
tp3525
asS'nLLvALzQQkbefhjkiljjmlmmhhxaaxwxaxxjkn_1200111110002'
p3526
(lp3527
(I0
I2
tp3528
a(F0.5259852191119707
F0.6101888406633345
tp3529
a(F12.998860495115977
F1.5502187795036761
tp3530
asS'nLLLPMzLQkbcgefhijmlllmmtsdawsqqqofcqa_2010222100002'
p3531
(lp3532
(I1
I1
tp3533
a(F0.572400152634616
F0.42187927929808117
tp3534
a(F9.488934419085796
F2.629759899737482
tp3535
asS'kvLAAzQkecfgfhjiijjccaxlqhvrud_0111100222'
p3536
(lp3537
(I6
I1
tp3538
a(F-0.15217898476786246
F0.4013875373835937
tp3539
a(F5.79302452999464
F-1.5430045008850735
tp3540
asS'nLLLwzAAQkcdefghikjmllmmhftacwexbarwhq_2010220211112'
p3541
(lp3542
(I8
I2
tp3543
a(F1.083281474722583
F1.5566708164979857
tp3544
a(F17.016298571068205
F1.5508499629634633
tp3545
asS'nLvAvzQMQkcfejhlklimkmlmumuorpmefamqlr_0221111000021'
p3546
(lp3547
(I0
I1
tp3548
a(F0.7192761560021002
F0.3230860245471565
tp3549
a(F7.376419389789605
F-1.5910748881975698
tp3550
asS'mLLLwPzQQcdefjihlkkllkhftahhwmmgwwg_201022021111'
p3551
(lp3552
(I4
I1
tp3553
a(F0.20900658878177236
F0.06313722292478784
tp3554
a(F6.286492258219405
F-2.28612709908189
tp3555
asS'lLLLLLQQcbcfhgkkjiijktshbfhhqsrtf_20102222201'
p3556
(lp3557
(I8
I2
tp3558
a(F0.12401846097532733
F0.6706251284302877
tp3559
a(F7.90704406094681
F-2.650870543149127
tp3560
asS'nLvAvQPQzkadfghjhkikjlmmjaqwmalqfsjqqj_2002111000020'
p3561
(lp3562
(I5
I3
tp3563
a(F0.6602893700026583
F0.5773323158093717
tp3564
a(F13.269499010775537
F-1.6914062616345638
tp3565
asS'nLLLwLPQMkcdefhjikllkmmmhftafeeamgsxil_2010220211010'
p3566
(lp3567
(I8
I2
tp3568
a(F0.0255784083357588
F1.1079681440831386
tp3569
a(F8.851359533338954
F1.1260117866901067
tp3570
asS'nLLLwLMMQkcdgfkilkijmkmmqgqaxxqhhwbrrg_2101222201001'
p3571
(lp3572
(I12
I3
tp3573
a(F1.1405175356295905
F0.2810479092604983
tp3574
a(F5.578993050074309
F1.615625175391597
tp3575
asS'mLLLLwQMQbegfhgjkjklklxxmxwwqhxxqrj_102210110222'
p3576
(lp3577
(I7
I2
tp3578
a(F0.3487928866939334
F-0.26696654538577647
tp3579
a(F13.751642527367196
F-2.140369880640043
tp3580
asS'nLLLALPzQkcdgfejkilmllmmhfhaqhhfxxipte_2010222001111'
p3581
(lp3582
(I6
I0
tp3583
a(F0.35066944251642346
F-0.2800903716195751
tp3584
a(F11.188869851353292
F2.983753418705683
tp3585
asS'nvvLAPQLQkghgfgikjmllmmlptappagghhhhhh_1202011111100'
p3586
(lp3587
(I2
I3
tp3588
a(F-0.3141958449053554
F1.1587016632132816
tp3589
a(F10.159897069951166
F-3.122293427480346
tp3590
asS'nLLvMvQQPkcdfijklhjkmlmmhsasqianxpxskn_1222011102221'
p3591
(lp3592
(I0
I0
tp3593
a(F0.6973033184032115
F-0.27640371191275037
tp3594
a(F8.968466355396307
F0.9648213252590164
tp3595
asS'mLLLLPzQQbeggfjiiklkllhhquvaovxavcc_120011211000'
p3596
(lp3597
(I3
I3
tp3598
a(F0.3507066931714744
F0.6927452178930371
tp3599
a(F8.960638245845097
F-0.02799285109180009
tp3600
asS'nLvvLMPQQkceghjihkjmlmlmqqvfkrrjwlhmun_2101020110211'
p3601
(lp3602
(I1
I3
tp3603
a(F0.5939683059766804
F0.46354379588903594
tp3604
a(F7.267399645343562
F1.4656551375191362
tp3605
asS'mLLLwMMPQcdgffjhilkkllqgqagarubrcwg_210122221110'
p3606
(lp3607
(I2
I0
tp3608
a(F1.2861999315653292
F0.24758628325865495
tp3609
a(F10.665531050379427
F-1.6885289851485745
tp3610
asS'lLLLPMMPcbcgefhihjkkktsdawsqfdqep_20102221012'
p3611
(lp3612
(I1
I1
tp3613
a(F0.31991991890037846
F0.25658105215367333
tp3614
a(F10.135914547742424
F2.6208886952033237
tp3615
asS'nLLLMPwAMkbeffgihikjlmmmxxqphxouxvqxrg_1022101102001'
p3616
(lp3617
(I3
I0
tp3618
a(F0.7219305830256038
F-0.011897952937374863
tp3619
a(F8.088886460077216
F-3.075168497139096
tp3620
asS'lLvLALQQccfefikjhjikkhduhkudjarhr_20102110210'
p3621
(lp3622
(I2
I1
tp3623
a(F0.29656247632194876
F1.1353341534482075
tp3624
a(F10.154904601254179
F0.26906036497832186
tp3625
asS'mLLLwLQMQcdgfjihjkklllqgqalxrxhfjwj_210122220100'
p3626
(lp3627
(I6
I1
tp3628
a(F0.589344842171488
F-0.3329302805753492
tp3629
a(F6.524534920524807
F-2.2132505357656043
tp3630
asS'mvLLvQQPQdgihjhkikllklsldixgfsshesd_201102102222'
p3631
(lp3632
(I4
I0
tp3633
a(F0.6787364842409872
F0.3486635087212674
tp3634
a(F6.1336360625909885
F-1.6045150792374938
tp3635
asS'nLLLLPMMPkcedfihikjllmmmptrnccbxxxcumx_1022120110101'
p3636
(lp3637
(I2
I3
tp3638
a(F0.11696242163512985
F-0.4336762136748936
tp3639
a(F15.980343526747715
F-0.6642172422500178
tp3640
asS'lLLvMLQQcbeehkihjikjkxxxqtkgxgddr_21112002211'
p3641
(lp3642
(I6
I1
tp3643
a(F0.5146448744841013
F1.9326154267670592
tp3644
a(F15.409396459441302
F2.60005098850669
tp3645
asS'mLLvLLQQQbdjhgkgijkllldwbjjdkoouudc_210102112211'
p3646
(lp3647
(I7
I2
tp3648
a(F0.6668265008725102
F0.29614129497453967
tp3649
a(F12.824059286250742
F-1.5830136724799788
tp3650
asS'nLLvLALQQkccfjhlikkjlkmmlnckchcmdvxxvr_1200111221202'
p3651
(lp3652
(I4
I0
tp3653
a(F0.9342947089136231
F-0.30186423094776765
tp3654
a(F8.93750466732061
F0.5995920432417312
tp3655
asS'nLvLLwQMQkceejilhkjmklmmqiqngtbesitqoj_2101020102010'
p3656
(lp3657
(I6
I0
tp3658
a(F-0.5441807658827238
F0.39785048641591125
tp3659
a(F13.213862291249672
F-1.5843775583052209
tp3660
asS'nLvvLAPQQkcefgmllkjkjlmmhassaaewwwweaa_2010211002200'
p3661
(lp3662
(I4
I1
tp3663
a(F0.7263147206633009
F-0.22154917817749564
tp3664
a(F5.414293489872863
F-2.2876317875025274
tp3665
asS'nLLvQLwAQkbehgfijklllmmmxxelxddluvvaud_1022101022201'
p3666
(lp3667
(I1
I2
tp3668
a(F0.60279876023572
F-0.03721486932356984
tp3669
a(F6.220460944589256
F-0.6077905605228829
tp3670
asS'lLLLwzQQccdefghijkjkkhftacweqxbgg_20102202111'
p3671
(lp3672
(I8
I2
tp3673
a(F0.6806814992309869
F1.371918546035218
tp3674
a(F12.946136921977123
F1.622273287824795
tp3675
asS'nLvAwLAQMkcfefghkilklmlmumuibfxwqpjxfn_0221111020211'
p3676
(lp3677
(I1
I0
tp3678
a(F0.09428278882142596
F0.07912673371682606
tp3679
a(F8.599862603516186
F-0.3155539802372452
tp3680
asS'nvLLzzPQQkeghiklkjmlmkmlratqgrjcasusqo_0222210000112'
p3681
(lp3682
(I1
I1
tp3683
a(F-0.8768737301498383
F1.9842989251421264
tp3684
a(F14.483084466966895
F-2.6738248619357146
tp3685
asS'nLALLzMAMkcbbeghikjjlmmmqqjnanpdabaxvc_0220012122011'
p3686
(lp3687
(I5
I1
tp3688
a(F-0.18988294892462126
F1.910644207189672
tp3689
a(F10.744905815072256
F-2.753238599956095
tp3690
asS'nvLLLPQLQkeeegjkihmlmllmfooojjooaaxqqx_0222200111122'
p3691
(lp3692
(I11
I2
tp3693
a(F0.9100731430764348
F-0.051722386025298536
tp3694
a(F5.618256376664704
F-2.8794146919771477
tp3695
asS'mLLPLLwQQcdcfgiijkjkllhsrakthwjfraw_122201021221'
p3696
(lp3697
(I6
I0
tp3698
a(F0.3753532838798782
F-0.14121362815167104
tp3699
a(F9.398945317411567
F2.6367317579112814
tp3700
asS'kLLvAQPkbefhghgijjjhhxavvvcxmd_1200111110'
p3701
(lp3702
(I6
I0
tp3703
a(F0.1732139221318159
F1.0123219057485355
tp3704
a(F7.470998389635492
F1.7061462883770067
tp3705
asS'kLLLAAMkcdffgfhijjjqgdatgqhqdm_2101221022'
p3706
(lp3707
(I5
I2
tp3708
a(F0.03472796921596334
F0.181973662338971
tp3709
a(F6.961440970574429
F3.068155028254508
tp3710
asS'nLLLzLwQQkcdehjiikklmmlmhftxhhexagncrn_2010220111012'
p3711
(lp3712
(I6
I1
tp3713
a(F0.5061402314281711
F0.5851209916951481
tp3714
a(F6.784649643023848
F-0.20305623311805182
tp3715
asS'lLvLAAPQcbfgfghkijjkkhtxtgjictphs_12000011112'
p3716
(lp3717
(I7
I0
tp3718
a(F-0.2096126589279145
F0.6638376315050478
tp3719
a(F10.033491082621385
F0.6386930130019517
tp3720
asS'nLLvLvQQQkcdgihlkljkmlmmhsgjnqxqbpahun_1000121121200'
p3721
(lp3722
(I10
I0
tp3723
a(F1.9818093435672866
F0.14962509161180965
tp3724
a(F9.86343590173183
F-0.8474899113546313
tp3725
asS'mLLLMLMPQcdgfhiikjjlllqgqablmqhgbrg_210122221101'
p3726
(lp3727
(I0
I3
tp3728
a(F0.8995578961205571
F0.08633033034608618
tp3729
a(F3.9587610267310254
F1.7954668960494684
tp3730
asS'nLLLMLPAMkcdefghkjijlmmmhftagfqaqoqqvk_2010220200220'
p3731
(lp3732
(I7
I0
tp3733
a(F0.2577621405739459
F0.2965562183009552
tp3734
a(F5.222677960127557
F-2.439602608251126
tp3735
asS'mLLLLLQPQbcfhgkkjiljkltshbfhhqratfs_201022222010'
p3736
(lp3737
(I6
I1
tp3738
a(F0.258016548648955
F0.07268267784648494
tp3739
a(F8.45460148094683
F-2.9189689496701017
tp3740
asS'nLLLwLQAMkcdefihjikilmmmhftahweexqxxnk_2010220211100'
p3741
(lp3742
(I7
I3
tp3743
a(F0.3221653030092383
F0.4014157022567448
tp3744
a(F6.096752695479426
F-3.0467881260750236
tp3745
asS'lLvLLPQQcbegjikhkiijkhianrdrankku_12000011222'
p3746
(lp3747
(I1
I1
tp3748
a(F0.6715213546894648
F0.04216825235656827
tp3749
a(F3.3480225410351947
F2.939186177844108
tp3750
asS'nLLLLPwQMkbefgjhilklkmmmxxqhxsohhahxqx_1022101110221'
p3751
(lp3752
(I0
I0
tp3753
a(F0.6907122387643715
F0.24417408544433833
tp3754
a(F7.021059328945948
F-0.3205318107817595
tp3755
asS'lLLLLLQQcbefghikjjkjkxxqhsoqxqxxx_10221011122'
p3756
(lp3757
(I3
I3
tp3758
a(F0.44801881091023776
F-0.21007900244132596
tp3759
a(F7.281452053899659
F3.11960494875955
tp3760
asS'nvLLLAMMQkegfhjjkikmllmmcqttmngcwdtttf_0111122200200'
p3761
(lp3762
(I8
I2
tp3763
a(F0.7424838461875994
F-0.5600709131862679
tp3764
a(F7.037353977488228
F-0.07426829548564393
tp3765
asS'nLvLvPQPQkbejiklkjmlkmmlxlgvnprraxwahi_1022221110002'
p3766
(lp3767
(I12
I0
tp3768
a(F0.34966442047586116
F0.5580361608817146
tp3769
a(F8.380061010865399
F-3.1233946932211527
tp3770
asS'nvLLLLAQQkcdhglkjjmlkmkmwrarwkvwavktwi_1020211111112'
p3771
(lp3772
(I4
I3
tp3773
a(F0.3122381692314349
F-0.1900183158526229
tp3774
a(F4.686019762566496
F2.8491793198949966
tp3775
asS'nLvvLPQQPkbghijkiiklmlmmxxvrvrrfjuhllv_1022220101002'
p3776
(lp3777
(I12
I1
tp3778
a(F0.5204810192845857
F0.0626201817108393
tp3779
a(F11.269295302027006
F-2.773324730535188
tp3780
asS'mLvLLLQQQbegikhjiilkllhiardrnnkxeif_120000112222'
p3781
(lp3782
(I5
I1
tp3783
a(F0.41713691170045003
F-0.12885323819686448
tp3784
a(F4.0543076422010405
F-0.245467149336378
tp3785
asS'mLLLwPMQPcdefjihikijllhftahhweuqwqj_201022021120'
p3786
(lp3787
(I2
I2
tp3788
a(F0.9287192790791351
F0.38463198799823145
tp3789
a(F8.876473823699317
F-1.6773783708873444
tp3790
asS'nLvLLPMMQkcegjjgijkmllmmhttrsvvwemtsnr_2010211022102'
p3791
(lp3792
(I7
I0
tp3793
a(F0.7954035276285416
F1.0543277296823852
tp3794
a(F11.97282867597883
F-0.28089260862488913
tp3795
asS'mLLLLzPQQbeggjhikiklllhhquhcoxvxvkv_120011211200'
p3796
(lp3797
(I2
I1
tp3798
a(F0.14686586897507384
F0.7051848633135782
tp3799
a(F5.388019793287729
F-0.6388031980403197
tp3800
asS'mLLLLzMQQbefgjkikiklllxxqhxqgebphrb_102210111022'
p3801
(lp3802
(I2
I2
tp3803
a(F-0.04814476556835781
F0.16234047273754618
tp3804
a(F6.241496406647551
F-2.8702470479267173
tp3805
asS'nvLLLMwQQkegihjimljmkllmcqxtdcahrxkeha_0111122200211'
p3806
(lp3807
(I8
I2
tp3808
a(F1.009221922560691
F0.0876533079438216
tp3809
a(F24.509251737905164
F0.35453857410426176
tp3810
asS'nLLvvMQPQkbehklilmmjmkklxxwrqnqxmfdwfm_1022111110020'
p3811
(lp3812
(I7
I1
tp3813
a(F0.08963751104802453
F0.18392842171095228
tp3814
a(F5.723750154091339
F0.9880890232054499
tp3815
asS'mLAvLAMPQbcbfhijjkjlllxxnxajiphxhvo_011002212000'
p3816
(lp3817
(I0
I3
tp3818
a(F-1.0939655745166346
F0.4266135770520823
tp3819
a(F45.3384445165141
F2.729658007637685
tp3820
asS'nLAwLwLAQkcbbdfhjlkkmlmmhhrhjaxhuxsofj_1221220102221'
p3821
(lp3822
(I3
I1
tp3823
a(F1.0308919549484947
F-0.15336569310149006
tp3824
a(F8.581380441842484
F-2.287284047392341
tp3825
asS'nLLLMvMPQkcdgfhkljjkkmmmqgqabqqhgwgbrg_2101222211001'
p3826
(lp3827
(I2
I0
tp3828
a(F1.1658513470304253
F0.8986184525061327
tp3829
a(F14.811374322098127
F-2.487315896298354
tp3830
asS'nLLvLLQMQkbefjhlkhjklmmmxxxosqxjjqxass_1022101010221'
p3831
(lp3832
(I4
I2
tp3833
a(F0.5265787971312389
F-0.1634723135972735
tp3834
a(F10.607605263247127
F2.1862660018703566
tp3835
asS'nLLLwLMPQkcdgfkillijlmmmqgqaxxqthwswnk_2101222201000'
p3836
(lp3837
(I9
I0
tp3838
a(F0.7357006976119013
F-0.16721731603249343
tp3839
a(F10.074378832812082
F0.7734797952295831
tp3840
asS'nLvvALQQPkcefhilkjkljmmmhuhjjudkatgmcr_2010211002101'
p3841
(lp3842
(I1
I2
tp3843
a(F0.8865560054154135
F0.47827236325634437
tp3844
a(F7.455851694961632
F-1.6638588757553008
tp3845
asS'nLLvAzzQQkbegfgiljjlmkmmhhhejsepqhkrnc_1200112210200'
p3846
(lp3847
(I0
I0
tp3848
a(F0.7943394387534658
F0.08134809538406113
tp3849
a(F5.9615278896017685
F1.6237482767508928
tp3850
asS'mvLAAvMQQcdfegiikjlkllffafqwbippvjj_022220011112'
p3851
(lp3852
(I2
I0
tp3853
a(F0.561904068155528
F0.34948694177698086
tp3854
a(F11.205445348201952
F-2.2979285765715174
tp3855
asS'nLvLvPMQQkbejikkimilkmlmxlgvnrgdgxweio_1022221110001'
p3856
(lp3857
(I1
I2
tp3858
a(F0.8828291640212256
F-0.0017014150464976685
tp3859
a(F7.927204780382314
F-0.8948303547981868
tp3860
asS'mLLLPLMAQbcgefjhkikllltsdawqfdlghxh_201022211012'
p3861
(lp3862
(I4
I0
tp3863
a(F0.8519409057835684
F0.3284345841112715
tp3864
a(F7.251228876728057
F-0.7825428758202972
tp3865
asS'lLLLMPMPcbeffgghijkkkxxqphroxxqpe_10221011200'
p3866
(lp3867
(I3
I0
tp3868
a(F0.7374526135744408
F0.014233172508196777
tp3869
a(F7.683350172277307
F-2.9888468107636315
tp3870
asS'nLLLLvPQQkbcfhjiliimmllmtshbiresrjrwsv_2010222220101'
p3871
(lp3872
(I7
I3
tp3873
a(F0.8606830265343519
F0.2349681228893047
tp3874
a(F8.73816552625736
F2.4172850804558985
tp3875
asS'nLvvMwQPQkbhgglkgmmlkkmlhhagaaghudddmd_1200001222221'
p3876
(lp3877
(I2
I3
tp3878
a(F0.5558777026640412
F0.42923333352010856
tp3879
a(F12.805015255265314
F2.4289181887920037
tp3880
asS'lLvLwPQQccggihkijijkkqdagcxgjbjdq_21012221220'
p3881
(lp3882
(I6
I2
tp3883
a(F0.08365528773276036
F-0.3205286592509811
tp3884
a(F5.866088320382876
F-2.990522784711159
tp3885
asS'mLALLvQPQcbbegjikkjlllqqjnahqlhvnkc_022001210002'
p3886
(lp3887
(I0
I3
tp3888
a(F0.7597337002874903
F0.8663012932573615
tp3889
a(F6.737811797621546
F2.878536843090995
tp3890
asS'nLLvLPMQMkacikhjhljklkmmjkhhaamhmvkvaj_2002121101202'
p3891
(lp3892
(I11
I1
tp3893
a(F0.619469417639983
F0.197896625465887
tp3894
a(F18.35631559735982
F1.9734271055182808
tp3895
asS'mLLLwvQQQcdefihkljklklhftaawxdubnng_201022021111'
p3896
(lp3897
(I4
I1
tp3898
a(F0.10293731015108401
F0.002111429001874178
tp3899
a(F6.407621867105787
F-2.321203805377021
tp3900
asS'mLvvAAAQQbghijgikljklltmmgjsjhlrhpo_201021002212'
p3901
(lp3902
(I10
I2
tp3903
a(F1.1356144859060457
F0.29720331666813116
tp3904
a(F13.778319871020898
F-1.2453545275924685
tp3905
asS'mLLLLMPPQccefigjiljkkllnewgbikqtbrs_120011121220'
p3906
(lp3907
(I11
I2
tp3908
a(F1.4538960767700346
F2.8326952077942185
tp3909
a(F18.14555688663046
F2.270601001902157
tp3910
asS'nLLvMLPPQkcdfhjillmkmklmhsawtrhhhedvjs_1222011101120'
p3911
(lp3912
(I4
I3
tp3913
a(F0.9645570231036378
F0.21728962795301257
tp3914
a(F4.672476718405743
F-0.919195617381791
tp3915
asS'nLLLwvAQQkcdefjhmjlmklmlhftahwmubwbgrg_2010220211111'
p3916
(lp3917
(I8
I2
tp3918
a(F0.6167962591013683
F2.7470893963644842
tp3919
a(F17.810739798841496
F2.548649717840322
tp3920
asS'nLLLwLMQPkcdefihilikkmmmhftahweuqnkaei_2010220211122'
p3921
(lp3922
(I12
I3
tp3923
a(F0.5961632477679428
F0.028118783445232436
tp3924
a(F8.525866752844683
F2.686221050221181
tp3925
asS'nLLLwMwQPkcdgfgjikikmllmhfhafhhqqjhjwr_2010222211012'
p3926
(lp3927
(I0
I1
tp3928
a(F0.312850381399848
F0.17042771892577888
tp3929
a(F8.563926159804268
F-1.1466382827056187
tp3930
asS'mLvLALMQQcfghgjkjlkllkllierdiaitxqf_120000111222'
p3931
(lp3932
(I5
I1
tp3933
a(F0.655103646926923
F0.3405811794304148
tp3934
a(F6.015862599034978
F-0.7061065784602649
tp3935
asS'nLvLLAPQPkbghihhkljjmlmmxqhnvnaeonxncv_1022220111000'
p3936
(lp3937
(I12
I2
tp3938
a(F0.7242059860641206
F0.10531699217314268
tp3939
a(F9.168373401578096
F2.633737375362073
tp3940
asS'nLLLLPMPMkbefgijijjlkmmmxxqhrdoxqxhqti_1022101112200'
p3941
(lp3942
(I4
I1
tp3943
a(F0.7946194610306349
F0.5807094623414996
tp3944
a(F6.408891254849726
F1.884711146189389
tp3945
asS'nLLLPMPzMkbcgefhijiklmmmtsdawsqqqkqqof_2010222100022'
p3946
(lp3947
(I1
I1
tp3948
a(F0.657383048043822
F0.4115555388913272
tp3949
a(F9.403077910122931
F2.6279969805713344
tp3950
asS'lLLLLwQQcacfigkkiikjjjkglwmidfsnr_20021210121'
p3951
(lp3952
(I7
I0
tp3953
a(F0.15319335165736075
F-0.2118816491317947
tp3954
a(F6.254631793504245
F-1.320122841770715
tp3955
asS'nLvLLvQQQkcegklikmjijmlmhttllvdewwfhbs_2010211022110'
p3956
(lp3957
(I11
I1
tp3958
a(F-1.1178678877722863
F0.9307439954993836
tp3959
a(F13.536153302716263
F1.3571582704357872
tp3960
asS'nLLLLPAMMkbefgjhhjilkmmmxxqhxbwubxvqti_1022101110200'
p3961
(lp3962
(I7
I3
tp3963
a(F0.40900714854505676
F0.38039839548929927
tp3964
a(F10.101119934575909
F-0.21885113247626564
tp3965
asS'mLLLwPMAQcdefjihikilklhftahhweuqhjr_201022021122'
p3966
(lp3967
(I1
I0
tp3968
a(F1.1479483427907986
F0.3265369426138819
tp3969
a(F10.73055623789783
F1.215854577283134
tp3970
asS'nLLvLLPQQkbefghmjiklklmmhhakftffxxxxbb_1200112211002'
p3971
(lp3972
(I4
I0
tp3973
a(F1.0867608583063957
F1.0380101149604766
tp3974
a(F7.726226241750185
F-0.6541160661774743
tp3975
asS'mvLALwMQQcdfghjklkkljlffaqxohpttiwe_022220011111'
p3976
(lp3977
(I6
I1
tp3978
a(F-0.04741297296372056
F0.0842664099012883
tp3979
a(F11.35569812389644
F-0.08807502252005164
tp3980
asS'nLLwLLLQQkacdfiklijjllmmjkawxcxvkwluun_2002110002211'
p3981
(lp3982
(I10
I0
tp3983
a(F0.34169952382229163
F-0.3551521879557162
tp3984
a(F6.914191569767883
F-2.6718337159960366
tp3985
asS'nLvLwLQPQkcgghhljkklmmlmqdacfagdxhdahr_2101222122011'
p3986
(lp3987
(I3
I2
tp3988
a(F0.03294945222354309
F1.445610008484301
tp3989
a(F9.793661148340515
F0.8403832543104143
tp3990
asS'mLLLLPAMQbefgjhhjilkllxxqhxbwubxvrg_102210111020'
p3991
(lp3992
(I5
I0
tp3993
a(F0.27669325563239255
F-0.18594787841521387
tp3994
a(F5.73881773671274
F-1.3150318246137693
tp3995
asS'nLLLPLMMMkbcgefjhkijlmmmtsdawqfdljmxrg_2010222110120'
p3996
(lp3997
(I4
I0
tp3998
a(F0.7936635151618936
F0.27183312392131687
tp3999
a(F7.5989673214769375
F-1.078528610174395
tp4000
asS'lLLvAPPQcbefhjgijkjkkhhxahvctxtmd_12001111120'
p4001
(lp4002
(I6
I0
tp4003
a(F0.1426507690311156
F1.052600175923565
tp4004
a(F7.215728184147879
F1.689700848552063
tp4005
asS'nvLALLMPQkcdfhgjilmklkmmffalfrsdawdgqo_0222200111112'
p4006
(lp4007
(I9
I3
tp4008
a(F0.4391091684461196
F1.2273179692249534
tp4009
a(F8.831481566146225
F0.8645317999923293
tp4010
asS'nLLLzzPQMkccgghiljiljlmmlntakhxeerkwxn_1200111200021'
p4011
(lp4012
(I12
I3
tp4013
a(F1.073328405706484
F4.381173251161378
tp4014
a(F33.72494821437907
F-2.395404028649481
tp4015
asS'nLLvALPQMkbefhjljklkjmmmhhxaaaxxxxxhgg_1200111110002'
p4016
(lp4017
(I5
I3
tp4018
a(F0.26162177484053034
F2.263312670012503
tp4019
a(F13.7215270605195
F1.0031569429955807
tp4020
asS'nLvLAwzQQkcfeghlkmkjklmmllmpgeuqmpikob_1200001111120'
p4021
(lp4022
(I5
I2
tp4023
a(F0.2545996924374616
F0.20812473951713778
tp4024
a(F10.191122641776321
F1.7311751037278993
tp4025
asS'nLvAwLMPQkcfefghjmilmmllumuibfihrkofsj_0221111020221'
p4026
(lp4027
(I2
I2
tp4028
a(F0.4988588909208526
F1.1302905863524833
tp4029
a(F15.067579789778339
F-0.5364945659836098
tp4030
asS'mLLvLAPQQbehjfkilkjljlhhlcvtktpfxvb_120011221122'
p4031
(lp4032
(I4
I0
tp4033
a(F0.4592342082700756
F0.05577530544824248
tp4034
a(F5.101094180779255
F0.1141167812617381
tp4035
asS'nLvLLLMQQkceekkhlljmlmmkqiqupbeqsudapi_2101020102202'
p4036
(lp4037
(I0
I1
tp4038
a(F0.3889093375145749
F-0.5492349679191114
tp4039
a(F13.179752080963766
F0.22728004770682395
tp4040
asS'nLLLzLQPMkcdehgijiljkmmmhftxchhexbrxxa_2010220111001'
p4041
(lp4042
(I4
I2
tp4043
a(F0.7501934746505926
F0.1894932971162999
tp4044
a(F6.545703691141258
F-2.0243137817232766
tp4045
asS'mLLLwLPQQcdefhjikllkklhftafeeamgssg_201022021101'
p4046
(lp4047
(I8
I2
tp4048
a(F0.20721670185453153
F0.9648224985664122
tp4049
a(F8.392520424026017
F1.16986502876439
tp4050
asS'nLLLzLMMQkcdehjijimlllmmhftxhheexggrvc_2010220111010'
p4051
(lp4052
(I2
I1
tp4053
a(F0.43214264664631197
F0.31221677565181793
tp4054
a(F6.14537212890651
F0.2078340428437744
tp4055
asS'nLLLwvMQQkcdefjimkjlmlmlhftaheelubngsg_2010220211112'
p4056
(lp4057
(I7
I3
tp4058
a(F0.2906707629090714
F0.9314671973185191
tp4059
a(F8.492198676030862
F-2.9362540491292646
tp4060
asS'nLAvLAMPMkbcbfhijjkjllmmxxnxajiphxhohn_0110022120001'
p4061
(lp4062
(I9
I1
tp4063
a(F0.16255056228363884
F-0.0947423272342906
tp4064
a(F10.130150618670813
F-3.085275435740746
tp4065
asS'nLLLLzPPQkccghihjilmmklmlnhbgnprtrnkwc_1200111112020'
p4066
(lp4067
(I6
I0
tp4068
a(F1.227941407721098
F1.7535459805834268
tp4069
a(F19.439648662834387
F-0.9924858554830005
tp4070
asS'nvLALLLQQkecfgilmjkkllmmccaxjdecnfqahx_1000011221102'
p4071
(lp4072
(I7
I1
tp4073
a(F1.290540426284768
F-0.1730275478236275
tp4074
a(F7.618884188935981
F2.696432106053376
tp4075
asS'mLLLLPMMQbegfjigijklllxxmxxowjlmvjs_102210110022'
p4076
(lp4077
(I3
I1
tp4078
a(F0.2288649542089045
F-0.028543192212774637
tp4079
a(F12.363877873763412
F-0.5439441375730921
tp4080
asS'lLLLLLQQcbegfjkhijkjkhhqaaaooxxxx_12001121100'
p4081
(lp4082
(I0
I0
tp4083
a(F0.6224293978662274
F-0.055758280486176454
tp4084
a(F7.777241762648556
F1.6733191579753386
tp4085
asS'mLLLzPLQQcdehhgiljkkllhftxvceebgggb_201022011111'
p4086
(lp4087
(I1
I2
tp4088
a(F0.2631598882289253
F0.6280066849075565
tp4089
a(F7.6856241781874965
F-1.3163994036128364
tp4090
asS'kLLLLPQkbeggfjhijijhhquvacoxvx_1200112110'
p4091
(lp4092
(I6
I2
tp4093
a(F0.8539588727041317
F0.01266587410899959
tp4094
a(F7.618377685876244
F-2.193672277037307
tp4095
asS'nLvLLPAAQkbeghikjjimllmmxixvvxnjgaxfjg_1022220110122'
p4096
(lp4097
(I4
I0
tp4098
a(F1.0998834421183747
F-0.368285824422783
tp4099
a(F10.308773936454989
F2.2882144227060284
tp4100
asS'nLLLwPLPQkcdefijimjkmlmlhftaqqedhgwnnj_2010220211121'
p4101
(lp4102
(I5
I0
tp4103
a(F0.870954013057089
F-0.30776978893340684
tp4104
a(F10.03544949297909
F0.9631443851101286
tp4105
asS'nvLLLMPPQkcdhghkjilmlkmmnktigvbkpxtblc_1000011111120'
p4106
(lp4107
(I5
I0
tp4108
a(F1.1472496565199597
F1.6288676415475967
tp4109
a(F10.981136899840946
F-1.248127102607243
tp4110
asS'mvLAAvMQQcdfeghljlkjklffafqripxiivf_022220011112'
p4111
(lp4112
(I8
I2
tp4113
a(F0.01022735815206137
F-0.29964301076758854
tp4114
a(F7.662969995666601
F-0.10753502897979739
tp4115
asS'nLLLwLLQQkcdefhikllkkmmmhftafeamgssncn_2010220211012'
p4116
(lp4117
(I8
I2
tp4118
a(F-0.23580171631601912
F1.0630879062288239
tp4119
a(F9.460309704203627
F1.2499559000176086
tp4120
asS'nLvLAvQPQkcfghjiljimklmmlliedwianxffrr_1200001112220'
p4121
(lp4122
(I5
I0
tp4123
a(F1.0208253741963138
F0.5750085190019212
tp4124
a(F7.1864932917759425
F-0.577528785838488
tp4125
asS'nLLvLMMQMkacjghjijhlkmmmjklwqqldwfnxip_2002121101201'
p4126
(lp4127
(I9
I2
tp4128
a(F0.7218469259922892
F1.0697561280370986
tp4129
a(F10.537094271938264
F-2.3390339113825744
tp4130
asS'nLLLvPQPPkcedhgjjkjlklmmptrvcladhqxwgn_1022120112020'
p4131
(lp4132
(I9
I2
tp4133
a(F1.347880212461842
F1.0591101228110091
tp4134
a(F13.393863862788569
F-0.9113698496118355
tp4135
asS'nLLLLzPMQkbeggjhikmmlllmhhquhcoxluvkvc_1200112112000'
p4136
(lp4137
(I6
I2
tp4138
a(F0.4063172997037748
F0.4977594156651837
tp4139
a(F6.741270572279584
F-2.2703344742253155
tp4140
asS'mLLLMMPzQcdefghhjiklllhftagofqaxqrb_201022020210'
p4141
(lp4142
(I3
I1
tp4143
a(F0.7195498166481985
F1.0191277048391718
tp4144
a(F13.120504106676474
F-1.1600439117741486
tp4145
asS'nvLLvMPQQkcdihiijmklklmmvvtgoromjfnbqe_0111122022001'
p4146
(lp4147
(I11
I2
tp4148
a(F0.38896922208166423
F0.4126210123893654
tp4149
a(F8.254090459453511
F-0.3336224969500683
tp4150
asS'nvLLLMLQQkefghjlmikklmkmghahiqqowwmusc_1222211000100'
p4151
(lp4152
(I5
I2
tp4153
a(F-0.2735133746833835
F-0.36199158699374956
tp4154
a(F8.827356419410945
F-0.3043429236878398
tp4155
asS'mLLLwLQAQcdefihjikilllhftahweexqxqh_201022021110'
p4156
(lp4157
(I7
I3
tp4158
a(F0.32220035636857036
F0.43400986310072026
tp4159
a(F6.210204199482258
F-3.133228346349559
tp4160
asS'mLvLAwMQQcggehijlkkllkhtaqgoqttxxjj_201022202011'
p4161
(lp4162
(I3
I0
tp4163
a(F0.8939134957514179
F1.3948002918399578
tp4164
a(F12.544668835518642
F-1.1778390332234319
tp4165
asS'nLLLLzQLQkbeggjjhimmkllmhhquhtcolugjsv_1200112112000'
p4166
(lp4167
(I3
I3
tp4168
a(F0.2767393208946928
F0.0421202131849011
tp4169
a(F7.110926825290819
F-0.6531769171074547
tp4170
asS'nLALLPLPMkcbbeghhjkklmmmqqjnanbukbdmnw_0220012120002'
p4171
(lp4172
(I8
I0
tp4173
a(F-0.6281283235504791
F1.5264319048872663
tp4174
a(F10.917781047347631
F0.5792523641467571
tp4175
asS'mLLvAMPPQbefhhjikkjlllxxhawqbiapqgg_102211111220'
p4176
(lp4177
(I3
I3
tp4178
a(F0.016146989752917548
F0.1258956009858817
tp4179
a(F7.7782058615092655
F2.831427103466612
tp4180
asS'nLvLQvLQQkcegfhmjilkklmmhthhmheessssgg_2010211011002'
p4181
(lp4182
(I0
I3
tp4183
a(F0.557612834906707
F-0.017768772777607925
tp4184
a(F3.9789280833427174
F-2.9572859220693166
tp4185
asS'nLLLwAwPQkcdgffihljkmlmmqgqagqrvocwfgo_2101222201100'
p4186
(lp4187
(I2
I0
tp4188
a(F1.680495232357996
F0.47733762386400697
tp4189
a(F13.798476309390729
F-1.460380614205522
tp4190
asS'mLLLwPMPQcdgfhjikijlllqgqajlxqhwbrg_210122220101'
p4191
(lp4192
(I6
I1
tp4193
a(F0.42860207445986814
F0.010678641138835931
tp4194
a(F9.361826017501771
F-2.780220773645604
tp4195
asS'nLLvLLQPQkbcijglljhjklmmtsoofhhsnsqfss_2010222112010'
p4196
(lp4197
(I3
I0
tp4198
a(F0.24187436319411573
F0.3122223073013739
tp4199
a(F5.711774427379583
F-1.8019437842424817
tp4200
asS'nLLvAwMPQkbegfhkjklkmlmmhhheoptmmxdjcs_1200112210210'
p4201
(lp4202
(I8
I3
tp4203
a(F0.2600091865757951
F0.4379781220907181
tp4204
a(F10.076576575073041
F1.7367939305229645
tp4205
asS'mvLALLPQQecfgihikjllklccaxjvvkkxdgm_011110000222'
p4206
(lp4207
(I3
I0
tp4208
a(F0.7189212942034134
F0.32385443162380084
tp4209
a(F9.01129331808643
F0.393511964218557
tp4210
asS'mLLLLLAQQbcfhgkkiijklltshbfhhsrtfss_201022222010'
p4211
(lp4212
(I8
I1
tp4213
a(F0.41803371672815964
F0.1928330531902658
tp4214
a(F4.484190639990137
F-2.571352196651489
tp4215
asS'nLLPLvMPQkcdcfgjkimjlmlmhsraohbjqgjawx_1222010222221'
p4216
(lp4217
(I2
I0
tp4218
a(F0.4301178828936424
F-0.2315774395110615
tp4219
a(F7.860769447448307
F-0.0458257185520087
tp4220
asS'nLLLzQLAAkcdghgfhkkjlkmmhfhxfwvdgwagxn_2010222111001'
p4221
(lp4222
(I7
I0
tp4223
a(F0.05402341264212508
F0.5532099162852121
tp4224
a(F9.48044323469899
F-2.586751807337367
tp4225
asS'nLLLLLPPQkbcfhgkjimjlllmtshbfhqratjnks_2010222220110'
p4226
(lp4227
(I12
I2
tp4228
a(F0.39447061698162783
F1.0030857400130038
tp4229
a(F18.205394085349607
F-1.3849182524334263
tp4230
asS'lLLLLMMQcbegfhigijkkkxxmxwowjxmof_10221011022'
p4231
(lp4232
(I3
I1
tp4233
a(F0.2319775356187115
F0.007865438045943567
tp4234
a(F11.260732146429856
F-0.5615294111873811
tp4235
asS'nvLALLQLQkcdfgjkhimlmllmffaqoossaaqxxq_0222200111122'
p4236
(lp4237
(I7
I0
tp4238
a(F0.28556357252075176
F0.2311714476923826
tp4239
a(F6.615099717660163
F0.9713231329938211
tp4240
asS'mLLLvPMQQbefikikjjlillxxqrdoxgbhbhr_102210111122'
p4241
(lp4242
(I0
I0
tp4243
a(F0.4387050626490481
F0.008290561319860123
tp4244
a(F6.534368423419885
F-0.345727337964539
tp4245
asS'mLvLvPQQQbejiklkijilklxlgvnprgrgxwi_102222111000'
p4246
(lp4247
(I7
I3
tp4248
a(F0.9362481780944786
F-0.7717956465180458
tp4249
a(F9.568315266894528
F0.29885861264971675
tp4250
asS'lLLLLPMQcbefgijijkjkkxxqhrdoxiqth_10221011122'
p4251
(lp4252
(I1
I2
tp4253
a(F0.7793889655169584
F-0.06969150577377456
tp4254
a(F4.603550826813739
F-0.5393463840637425
tp4255
asS'nLvvAQLPQkbgigijhklmlkmmhxaggrrppxeerr_1200001111110'
p4256
(lp4257
(I3
I3
tp4258
a(F0.8205315061847137
F-0.031675171534156936
tp4259
a(F8.502740563853036
F0.1831384368288669
tp4260
asS'lLLLvPQQcbefkhijihjkkxxqxsobgbgll_10221011110'
p4261
(lp4262
(I2
I2
tp4263
a(F0.035074610117942856
F-0.03174473338159947
tp4264
a(F4.163814023020419
F3.0978579401042787
tp4265
asS'lLLLLQLQcbcegigiijkkktsxojosfldvw_20102222211'
p4266
(lp4267
(I8
I3
tp4268
a(F0.9818084600790163
F-0.25683895273588125
tp4269
a(F5.387004290197851
F-0.14301678374149926
tp4270
asS'nLvLvPQQAkbejilklhiijlmmhinrdgaknkkuxk_1200001122120'
p4271
(lp4272
(I12
I3
tp4273
a(F1.1778596017149205
F0.4218578120120888
tp4274
a(F9.066022117890446
F2.5125274978822274
tp4275
asS'nLLLwLPPQkcdgfilimljklmmhshaxaxxxffooj_1222011022221'
p4276
(lp4277
(I11
I2
tp4278
a(F-0.15466855464963758
F-0.061803109829637194
tp4279
a(F5.2662990503477785
F-1.9702887524088974
tp4280
asS'jLLLAPQbcfeggihiitshhxfpiks_201022200'
p4281
(lp4282
(I8
I0
tp4283
a(F1.5841238984862478
F-0.1593687220683788
tp4284
a(F12.798987429227699
F1.221847026906727
tp4285
asS'nLLLLLMPQkbegfjkllkmklmmhhqaaaqaxaxajs_1200112110000'
p4286
(lp4287
(I2
I1
tp4288
a(F-0.044214823503141876
F1.2078312529623487
tp4289
a(F7.445044549185864
F-1.1582456103276777
tp4290
asS'kLLLwAQkcdgfghijjijhfhafrhmlqb_2010222211'
p4291
(lp4292
(I8
I2
tp4293
a(F0.6641992616600036
F0.6712148263592034
tp4294
a(F6.198921665304871
F1.1008083481572397
tp4295
asS'mLLLvPAQQbefkhhkjijlllxxqxbwugbbhhv_102210111102'
p4296
(lp4297
(I5
I0
tp4298
a(F0.7918732972213682
F-0.1333760616627013
tp4299
a(F6.788225128606029
F-1.33480838102742
tp4300
asS'nLLvAvPQQkbeghhjkimllmmlhhhhkppvxhgvvg_1200112210020'
p4301
(lp4302
(I7
I3
tp4303
a(F0.6946079008201428
F0.531135546906498
tp4304
a(F5.253838646480317
F-3.012021897799027
tp4305
asS'nLALLLMzQkcbbeghiikkllmmqqjnarpqkskjaj_0220012120002'
p4306
(lp4307
(I5
I1
tp4308
a(F-0.7316910982549226
F1.5080649046813557
tp4309
a(F12.045759648197388
F-2.465138895883748
tp4310
asS'nLLLwLzQQkbdgfjlljmjmkkmdwxxudhmtkfkjc_2101021212202'
p4311
(lp4312
(I11
I0
tp4313
a(F0.4445523168304298
F0.6970722123747137
tp4314
a(F11.437860345141427
F1.5706846211285996
tp4315
asS'nLLLLLPQPkccgigjikhkllmmlnicwmnejirfmj_1200111210222'
p4316
(lp4317
(I0
I2
tp4318
a(F0.46272262250497465
F0.27070750136060945
tp4319
a(F3.589158626351449
F1.5104919564495898
tp4320
asS'nLLLzMzPQkcdghghimlklkmmhfhxfvhnjnjkcn_2010222111102'
p4321
(lp4322
(I11
I1
tp4323
a(F0.6383292004710642
F0.386515210340648
tp4324
a(F11.829986805438482
F-0.7520429225597653
tp4325
asS'nLvPvAzQQkccghilklmljmkmqjawrxxlxlqbgf_0222110112202'
p4326
(lp4327
(I2
I2
tp4328
a(F0.19381955447856572
F-0.3540581176878324
tp4329
a(F7.526209496663998
F-0.06541716106022202
tp4330
asS'mLLLLQzPQbcegigijjllkltsxojosaqxswj_201022222110'
p4331
(lp4332
(I11
I1
tp4333
a(F0.4183513832499484
F0.8379266102790548
tp4334
a(F6.696671596011815
F1.1000130291309305
tp4335
asS'lLLLPMPPcbcgefhijikkktsdawsqqqkof_20102221000'
p4336
(lp4337
(I1
I1
tp4338
a(F0.678266988763657
F0.446005981207795
tp4339
a(F9.47218759203585
F2.6173107471650923
tp4340
asS'nvLAAvLQQkecfgfjiklmmllmccaxlwruuuuljs_0111100222222'
p4341
(lp4342
(I11
I1
tp4343
a(F0.597976353109526
F0.4694336353919471
tp4344
a(F3.6734117007828817
F2.454891338536485
tp4345
asS'mLvLvMQQQbegglhkijklklhigrarvkkkiki_120000112212'
p4346
(lp4347
(I3
I2
tp4348
a(F0.1577341501996619
F0.8877115507530813
tp4349
a(F7.849527792355822
F-1.8740651289054526
tp4350
asS'nLLLLPQLMkbeggfjhijlkmmmhhquvacoxhcqul_1200112110022'
p4351
(lp4352
(I8
I3
tp4353
a(F0.3679364203875856
F1.3020616340651814
tp4354
a(F14.80776326590479
F0.009474821810472656
tp4355
asS'nLLLMvPQAkbdgfhlikjjllmmdwxxbdtxdcrrhr_2101021211102'
p4356
(lp4357
(I11
I0
tp4358
a(F0.9630003162058244
F0.887805088911746
tp4359
a(F8.778928613108185
F1.887111320767986
tp4360
asS'lLLLwAMQccdgffihikjkkqgqagqrpqocv_21012222011'
p4361
(lp4362
(I10
I1
tp4363
a(F0.4436816377228503
F0.031186878168086175
tp4364
a(F7.4132078738250895
F1.1237857361182804
tp4365
asS'mLLvAzPQQbegfgikljjlklhhhejspepqhgw_120011221020'
p4366
(lp4367
(I7
I3
tp4368
a(F0.8359926231459086
F-0.7983038192055026
tp4369
a(F8.302405638600044
F-2.4938591596728763
tp4370
asS'nLLLLLMQMkbefghijjkjlmmmxxqhsoxqxxhqqa_1022101112220'
p4371
(lp4372
(I2
I2
tp4373
a(F-0.06511827708127878
F-0.11307651150662741
tp4374
a(F7.1432704530489755
F2.8179299246385825
tp4375
asS'nLLLAPPzMkcdgfehhjiklmmmhfhaqiphfxhxet_2010222001120'
p4376
(lp4377
(I6
I0
tp4378
a(F0.43778124470178287
F-0.29291689661493114
tp4379
a(F10.642575114992095
F3.0942984922652363
tp4380
as.