(dp0
S'hLvMQkbfeefgggdauaaprf_2101022'
p1
(lp2
(I1
I0
tp3
a(F0.39462739261410956
F0.5566164639333583
tp4
a(F6.251707163139374
F-2.6155682868002206
tp5
asS'iLLLPQccdghhfhgghfhxjoowr_20102221'
p6
(lp7
(I6
I0
tp8
a(F0.8120375243116437
F0.4494484701685046
tp9
a(F5.282515009640717
F2.3503038099192723
tp10
asS'iLMzMPcbcdefghhhhhhqxqqei_12210022'
p11
(lp12
(I7
I0
tp13
a(F0.6744751708382676
F0.3317082037493264
tp14
a(F3.4993817605038067
F2.505613912289156
tp15
asS'kLLLALQkcdgfejiiijjhfhaqhtefos_2010222001'
p16
(lp17
(I0
I0
tp18
a(F0.19470080794998995
F0.09635364500877114
tp19
a(F5.153816987178196
F-1.9588474453135567
tp20
asS'iLvwQQcbeghfhgghhehhprrww_12000022'
p21
(lp22
(I2
I3
tp23
a(F0.6513181507056929
F0.5768776874818029
tp24
a(F8.468298386504557
F2.876773039782682
tp25
asS'jLMzMzQbcdefghiiihhhqxxqhwr_122100122'
p26
(lp27
(I2
I0
tp28
a(F0.5174221810513691
F0.13865540536627746
tp29
a(F8.405111704743842
F-0.8475804533110897
tp30
asS'iLMzMPcbcdefghhhhhhhhxqdu_12211200'
p31
(lp32
(I5
I2
tp33
a(F0.18472997902473126
F-0.23860663806551177
tp34
a(F5.056993034545252
F2.596266480182608
tp35
asS'iLLLAQcbegfeghhhxxmparrjv_10221011'
p36
(lp37
(I0
I1
tp38
a(F0.9874734486463906
F0.33726296965449887
tp39
a(F9.928853987478554
F-1.4547919517689867
tp40
asS'kLLLMLQkcdgfgfhjiijhrhagjbhhkr_0222100102'
p41
(lp42
(I9
I1
tp43
a(F0.7313591111311512
F-0.12104705969876765
tp44
a(F6.4123163973550295
F0.43378617832466004
tp45
asS'iLMzMPcbcdefghhhhhhhxxqum_12211002'
p46
(lp47
(I5
I2
tp48
a(F0.8956829073581034
F0.21359549355382224
tp49
a(F4.965498796494914
F-0.7795277212081563
tp50
asS'hLLLQkbeegefgghhxaxarw_1200111'
p51
(lp52
(I3
I2
tp53
a(F0.5878575285936057
F0.13176600330444665
tp54
a(F3.370403096504995
F-0.588073668772152
tp55
asS'jLLLMAQcdgfghhihihrhagcrqbj_022210012'
p56
(lp57
(I8
I0
tp58
a(F0.36734923634751776
F-0.20247373925728143
tp59
a(F4.798764346884338
F-0.053959331530266406
tp60
asS'hLMzMkbcdefggghhhqxqkc_1221002'
p61
(lp62
(I2
I0
tp63
a(F0.47231961749068807
F-0.0036915061531447467
tp64
a(F5.728234107199841
F-0.8172811190148052
tp65
asS'iLMzMPcbcdefghhhhhhqxxqqx_12210012'
p66
(lp67
(I2
I0
tp68
a(F0.489799491664144
F0.04803044406760222
tp69
a(F8.125050128530678
F-0.6819490730891165
tp70
asS'jLALPMPbcbfffghiixxnqhxaxxn_011002101'
p71
(lp72
(I4
I1
tp73
a(F0.5107495026135347
F1.0873372644898678
tp74
a(F9.919942577195807
F0.6988803635638878
tp75
asS'jLLLPMQccehfhgiiilneuwkbxim_120011122'
p76
(lp77
(I3
I1
tp78
a(F1.0378317325471098
F0.42284966896669784
tp79
a(F8.638875931153164
F2.2231198635626743
tp80
asS'jLLLQLQbeefeghiiixxaxaxqqfo_102211122'
p81
(lp82
(I4
I2
tp83
a(F0.6265494150198961
F0.4056246877578966
tp84
a(F7.622679880460977
F3.0499217833966417
tp85
asS'kLLAwAMkcecdfhgijjjhqrwqaaxxkn_2010220011'
p86
(lp87
(I2
I3
tp88
a(F0.27574061847263115
F0.5873568076009215
tp89
a(F7.370981535599652
F-0.026796508592567596
tp90
asS'kLAMvMAkbcbdehhhijjxxnxxqhxaxk_0110100210'
p91
(lp92
(I2
I1
tp93
a(F0.2406746371903398
F0.45803630103903875
tp94
a(F4.769936280780875
F-3.0226864266948956
tp95
asS'jLMzMzQbcdefghiiihhhqxqqhkc_122100221'
p96
(lp97
(I2
I0
tp98
a(F0.4243659733298365
F-0.1101889134212488
tp99
a(F6.7037530042245335
F-0.6229009680952128
tp100
asS'jLLLLQQbefgighhiixxqhwrbwgb_102210111'
p101
(lp102
(I5
I0
tp103
a(F0.8206965671642179
F0.03288966755254905
tp104
a(F5.91802237174009
F-1.2240386960885232
tp105
asS'kLALPLMkcbbegfihjjjhhrwhhaahxq_1221100112'
p106
(lp107
(I9
I3
tp108
a(F0.751106887659973
F1.233758788254175
tp109
a(F8.73819521780674
F2.9983372756353317
tp110
asS'iLMzMPcbcdefghhhhhhhxxxhq_12211001'
p111
(lp112
(I4
I3
tp113
a(F0.8903882032022031
F0.31240526692191184
tp114
a(F8.517900199872209
F2.5831295951739066
tp115
asS'kLLALLQkccedhhjhiijlnxkxaaaark_1200111220'
p116
(lp117
(I2
I2
tp118
a(F0.7368478806155054
F0.025328910162331665
tp119
a(F8.35976337209712
F3.0001559092856516
tp120
asS'jLLvQAQbeghfffiiixxaaaknxqh_102211110'
p121
(lp122
(I2
I1
tp123
a(F0.5817122050677719
F0.37236601348539977
tp124
a(F5.676325602690835
F3.089319890436112
tp125
asS'jvLLAQQcdgfghhiiinkaaiagnnn_100001112'
p126
(lp127
(I3
I3
tp128
a(F0.31383376992519124
F-0.260235715371122
tp129
a(F5.76021030510933
F1.626972204275167
tp130
asS'iLLwQPcbeefgehhhxxhaahxqh_10221110'
p131
(lp132
(I2
I1
tp133
a(F0.49999999999999967
F0.49999999999999845
tp134
a(F5.4000000000000075
F-3.141592653589793
tp135
asS'jLLLMAQbefgghhiiixxqahnkqha_102210112'
p136
(lp137
(I0
I2
tp138
a(F0.8453778570699536
F0.05757658187819272
tp139
a(F5.062186978305422
F0.22433045181637767
tp140
asS'hLMzMkbcdefggghhhhxxnk_1221100'
p141
(lp142
(I4
I3
tp143
a(F0.8051074257873535
F0.47201156174928827
tp144
a(F8.461842601262605
F2.7545659344039923
tp145
asS'iLPLwQcbdcefghhhxccxxqqfo_10221122'
p146
(lp147
(I1
I0
tp148
a(F0.5941792173157527
F0.8768894076364497
tp149
a(F14.64274434883334
F1.4126868436262734
tp150
asS'jLLzAPQcdefgihihihsahhaqqqo_100012100'
p151
(lp152
(I2
I3
tp153
a(F1.1552283664962573
F-0.5911426935702101
tp154
a(F7.1827944369577414
F-3.048634532436661
tp155
asS'gLLPQcdeffefqgddahg_210122'
p156
(lp157
(I3
I0
tp158
a(F0.3609370166827915
F1.2869811750042697
tp159
a(F12.294531387229435
F1.6426109761759509
tp160
asS'eLAkbccddhhsqs_1220'
p161
(lp162
(I2
I0
tp163
a(F0.830882778980623
F-0.09118384968452135
tp164
a(F4.2302184290164755
F-0.33344289979130626
tp165
asS'iLLLMQcbdgfhgghhdwxxbrgbo_21010212'
p166
(lp167
(I3
I1
tp168
a(F-0.1281077104129062
F0.8234727335106428
tp169
a(F10.344638431535637
F-1.6614941447674134
tp170
asS'kLAvLAQkbcbfhfiijjjxxnaajjbuda_0110022121'
p171
(lp172
(I8
I1
tp173
a(F0.2766317532183956
F-0.028033247307372916
tp174
a(F6.9371487627094375
F0.5446572887027344
tp175
asS'kLLAMzMkbeddfghijjjhhnkahhhhbg_2111221122'
p176
(lp177
(I4
I3
tp178
a(F0.9649330849394859
F0.34551396462344686
tp179
a(F5.311033248632893
F2.6748622727521894
tp180
asS'jLLLPAQcdghhfhiiihfhxjoohxq_201022211'
p181
(lp182
(I8
I0
tp183
a(F0.4043942362691296
F0.714066274403122
tp184
a(F9.040512518977183
F1.2141662900849857
tp185
asS'hLMzMkbcdefggghhhqxxbw_1221001'
p186
(lp187
(I5
I2
tp188
a(F0.7743486051135661
F0.5539126122073161
tp189
a(F4.916362593534442
F-0.39089695447442746
tp190
asS'jLLALPQcecdhhiihihqrwqqhxqq_201022201'
p191
(lp192
(I0
I3
tp193
a(F0.04700428076653942
F0.06289426397889719
tp194
a(F5.003980852010856
F-2.0929351057350996
tp195
asS'iLLLAQccdffgfhhhqgdatgqdm_21012210'
p196
(lp197
(I2
I0
tp198
a(F0.8031147017365367
F0.2158636441916613
tp199
a(F6.9874344676522
F-0.17664224752326732
tp200
asS'hLvPQkccgfeefghraaassw_1222001'
p201
(lp202
(I3
I1
tp203
a(F0.3424858560789831
F-0.0916568712079031
tp204
a(F4.068167841275222
F-1.238844030840836
tp205
asS'jLLLwQQcdefhgihiihftarchweq_201022021'
p206
(lp207
(I8
I2
tp208
a(F0.5321008906494932
F0.6834630568672743
tp209
a(F6.045348291876205
F1.3046085452025398
tp210
asS'kLAwAMzkbcbdffghijjhhwhnkahhhw_2112112121'
p211
(lp212
(I4
I0
tp213
a(F-0.3106405312617921
F0.659295621915249
tp214
a(F9.734982825291503
F-0.35200055036278804
tp215
asS'jLLLAAQbdfggghiiixnqahvhqnc_102220112'
p216
(lp217
(I5
I0
tp218
a(F1.2525104863066365
F0.358667792163881
tp219
a(F8.461817592469503
F-0.7168819935532147
tp220
asS'iLLLPQccdehghhgghftxgnvcn_20102201'
p221
(lp222
(I6
I1
tp223
a(F0.43474252613721176
F0.10281496468701863
tp224
a(F7.483294672081594
F-0.9211883517682768
tp225
asS'iLMzMPcbcdefghhhhhhhxxxxa_12211001'
p226
(lp227
(I5
I2
tp228
a(F0.5000000000000006
F6.768050528880226e-16
tp229
a(F3.4749167819717197
F-0.8959074812088915
tp230
asS'jLLAPzQcecdfghiiihqrwffhhrw_201022211'
p231
(lp232
(I2
I3
tp233
a(F0.3745573654968542
F0.4790559788625927
tp234
a(F8.705273643176588
F0.34255110027802355
tp235
asS'kLLLAPPkcdgfehijjijhshahxqhwfr_1222011222'
p236
(lp237
(I6
I0
tp238
a(F0.5307110391165779
F0.27861684392880376
tp239
a(F4.577361918987388
F0.34657605434488203
tp240
asS'jLMzMzQbcdefghiiihhhqxxqhbg_122100122'
p241
(lp242
(I7
I0
tp243
a(F0.3994909053233276
F-0.0003602867798318158
tp244
a(F3.920189793914425
F2.5728960870261863
tp245
asS'jLMzMzQbcdefghiiihhqqqxhhfj_122002112'
p246
(lp247
(I2
I0
tp248
a(F0.5809140861716637
F0.12682667484893972
tp249
a(F8.446491861927374
F-0.8620747734693657
tp250
asS'iLLvQQccdfehghghhsahwrggn_12220111'
p251
(lp252
(I2
I1
tp253
a(F0.5346673019136932
F0.045494557360685986
tp254
a(F4.118887727175576
F3.044134578256237
tp255
asS'jLLLMPQcdgfhfhiiihshassspiq_122201101'
p256
(lp257
(I3
I2
tp258
a(F0.21890265985582588
F0.05750741420683374
tp259
a(F8.744649895611376
F-0.18270787672716882
tp260
asS'kLLLLPQkcdghiigjhjjhshwjwbpgph_1222011102'
p261
(lp262
(I9
I3
tp263
a(F0.06976552150250982
F0.7450412321832813
tp264
a(F12.424553248516997
F3.0027003407927753
tp265
asS'gLLAQbeddfffhhnkabg_211122'
p266
(lp267
(I0
I3
tp268
a(F0.9030935876789271
F0.09764692513771421
tp269
a(F4.051593950362874
F2.2518861450377714
tp270
asS'jLMzMzQbcdefghiiihhhhhhhqwg_122112210'
p271
(lp272
(I3
I2
tp273
a(F0.48800990640942365
F0.39571784772549806
tp274
a(F5.101751079052909
F0.41697080834164213
tp275
asS'jLMzMzQbcdefghiiihhhqxxqhsj_122100122'
p276
(lp277
(I7
I0
tp278
a(F0.4191178879782105
F-0.12177058444280799
tp279
a(F5.866549191034085
F-2.8478073405549513
tp280
asS'kLLLLQMkbcfgihggjjjtsqjjjjrxxa_2010222220'
p281
(lp282
(I4
I3
tp283
a(F0.7811990896014005
F0.02906542551597589
tp284
a(F4.148103522821692
F-0.36430930825346036
tp285
asS'kLLLALQkcdgfejihjijhshahhqxwfr_1222011222'
p286
(lp287
(I6
I0
tp288
a(F0.29574442104828236
F0.7169025131602629
tp289
a(F4.976018209542678
F0.1101056833329259
tp290
asS'hLMzMkbcdefggghhhhxxvc_1221100'
p291
(lp292
(I3
I2
tp293
a(F0.8422641860940446
F0.32111268727720327
tp294
a(F6.639757205028817
F-0.38702671918580234
tp295
asS'kLLAPLAkcecdfghihjjpqrrccaarxn_1022111201'
p296
(lp297
(I6
I3
tp298
a(F0.01896975056654934
F0.21318605868220022
tp299
a(F9.61455215866069
F2.747192689006131
tp300
asS'jLLvQAQbeghfffhiixxaaaknkxn_102211110'
p301
(lp302
(I6
I3
tp303
a(F0.2376471809403724
F0.25252868689095803
tp304
a(F5.723100413394176
F-0.1981439850501329
tp305
asS'kLLAMvQkcecdfgjiijjhqrwqqqknaa_2010220002'
p306
(lp307
(I1
I3
tp308
a(F-0.584226472235653
F-0.5512535957702932
tp309
a(F13.76387453832819
F-0.922736486767988
tp310
asS'jLLLMAQcegfhhhiiihqhaqfohxq_201022221'
p311
(lp312
(I1
I3
tp313
a(F0.9831898325281532
F0.5416284042766709
tp314
a(F11.972508612134693
F-1.0304420944154415
tp315
asS'jLLzAPQcdfgeihihiqraqqdlmug_022210022'
p316
(lp317
(I8
I3
tp318
a(F0.6579695967547812
F0.47741421806844986
tp319
a(F7.114777311547405
F-2.667721205153433
tp320
asS'iLMzMPcbcdefghhhhhhqxqxha_12210021'
p321
(lp322
(I2
I0
tp323
a(F0.5188392057503498
F0.07804706993166462
tp324
a(F6.151400441877798
F-0.9371546970898534
tp325
asS'kLALLMPkbcbfhgijiijxxnqqaqxxhk_0110021200'
p326
(lp327
(I2
I1
tp328
a(F0.3386819641683224
F0.27207179620002386
tp329
a(F4.645402373945072
F2.880503231785048
tp330
asS'jLLPLQPbcfffhggiilohmgoonhw_022110021'
p331
(lp332
(I5
I1
tp333
a(F0.6652312434952831
F-0.1343403524017583
tp334
a(F6.51384622719853
F2.1439815950910366
tp335
asS'iLLvQQcbefhghhgghhqaqbgvc_21112002'
p336
(lp337
(I2
I3
tp338
a(F-0.217666057339433
F0.2961148557403904
tp339
a(F11.22345717795969
F-0.4606880527327749
tp340
asS'jLMzMzQbcdefghiiihhhhhxqxbw_122112001'
p341
(lp342
(I4
I3
tp343
a(F0.9468511898489838
F0.33971911672959787
tp344
a(F9.18194736678838
F2.5663441054841822
tp345
asS'jLLLLQQbegfhihihihhqakkkkoo_120011211'
p346
(lp347
(I3
I1
tp348
a(F1.208072801051165
F-0.6272388836589704
tp349
a(F5.378957628395167
F2.7159219755327477
tp350
asS'hLLLQkcegfeegghqhaqawr_2010222'
p351
(lp352
(I1
I3
tp353
a(F0.6658801375996745
F0.5275162083886368
tp354
a(F8.682739187837386
F-1.0061913995728948
tp355
asS'iLMzMPcbcdefghhhhhhqxqqtp_12210022'
p356
(lp357
(I2
I0
tp358
a(F0.4838535024511817
F0.020048815113392345
tp359
a(F5.43463881364021
F-0.8927961163926283
tp360
asS'jLMzMzQbcdefghiiihhhhhxqqbr_122112002'
p361
(lp362
(I5
I2
tp363
a(F0.1537344606589797
F-0.5040622594409078
tp364
a(F5.3015131789624865
F2.745912826166422
tp365
asS'kLALLAAkbcbefhghijjhhwshwwchhw_2112201121'
p366
(lp367
(I2
I0
tp368
a(F-0.5572528202132568
F2.0033687057103444
tp369
a(F13.986824285019347
F-1.5005759345016292
tp370
asS'iLLMMPcaedfdghhhjxaxjxxnk_20021100'
p371
(lp372
(I2
I2
tp373
a(F-0.14913872063156586
F0.605715037101552
tp374
a(F8.440118753816932
F1.340328874069227
tp375
asS'jLLLLQQbeefighihihhxajrnfkf_120011122'
p376
(lp377
(I3
I2
tp378
a(F0.3999126206200243
F0.6512101714900134
tp379
a(F6.801556156982439
F-1.424096204422608
tp380
asS'kLLLAAMkbdfggghijjjxnqahvhqhei_1022201122'
p381
(lp382
(I5
I0
tp383
a(F1.2780323304096364
F0.4222511169179155
tp384
a(F9.446603598970471
F-0.6856784191676232
tp385
asS'hLLMMkaedfdgggjxaxjxqh_2002110'
p386
(lp387
(I2
I2
tp388
a(F-0.07812500000000323
F0.6200979635307615
tp389
a(F8.396893026590252
F1.3347570340562547
tp390
asS'kLLLAwQkbedgfhijijjxxnxxxaankn_0111022111'
p391
(lp392
(I8
I0
tp393
a(F0.4602199787626801
F0.44605273292414854
tp394
a(F5.858236558384747
F2.8561085848349377
tp395
asS'jLMzMzQbcdefghiiihhhhhhhhkn_122112211'
p396
(lp397
(I8
I3
tp398
a(F0.38935738542135817
F0.2704864454799931
tp399
a(F4.975542778300555
F-2.73335965367086
tp400
asS'jLLLLQQbdefghihiihrugrvvknr_120001211'
p401
(lp402
(I1
I1
tp403
a(F0.5995376044421482
F0.05825350164488617
tp404
a(F6.057165239689768
F2.308523999690817
tp405
asS'jLLLwQQcdefighihihftahrfawm_201022021'
p406
(lp407
(I2
I1
tp408
a(F0.2537639566862274
F0.42868164841334916
tp409
a(F8.159081388265772
F0.3391925993664433
tp410
asS'jLMzMzQbcdefghiiihhhhhxqqnv_122112002'
p411
(lp412
(I4
I3
tp413
a(F0.6162514440979874
F0.323234443956805
tp414
a(F10.250541919649654
F3.0106072167432814
tp415
asS'eLMkbcdddhxqdu_1200'
p416
(lp417
(I3
I2
tp418
a(F0.5000000000000001
F6.009258394948636e-16
tp419
a(F4.380127018922192
F-0.5235987755982984
tp420
asS'gLLMQbdeefffdwdetpw_210101'
p421
(lp422
(I2
I3
tp423
a(F0.7681553761119787
F0.7182821264778716
tp424
a(F5.2017356729606075
F1.807534352488455
tp425
asS'iLvLQQcbehegghhgheaeagjfg_12000011'
p426
(lp427
(I6
I0
tp428
a(F1.70282779032819
F2.68125052932253
tp429
a(F10.958410427827651
F-1.6080607606052808
tp430
asS'iLPvPQcbdcfghghhxccbrwrrg_01112222'
p431
(lp432
(I6
I0
tp433
a(F0.2760043801710112
F0.8015704487643671
tp434
a(F7.849046956273767
F-3.1018997300952043
tp435
asS'jLvLAQQbfheghhiiihdhdgrwgcv_120000121'
p436
(lp437
(I7
I3
tp438
a(F0.9300365253152294
F0.06675339280989569
tp439
a(F6.5964673916863
F-0.37451538537500406
tp440
asS'iLLPAMcccdfefghhhwraarhhr_20102212'
p441
(lp442
(I5
I2
tp443
a(F1.185433978850637
F0.063168989783144
tp444
a(F6.47438058907616
F1.928949793960106
tp445
asS'jLALLPQcbbeghhiiiqqjnanbpea_022001212'
p446
(lp447
(I4
I2
tp448
a(F-0.5805214351428787
F0.26129854580884104
tp449
a(F5.574614743653512
F1.5090162817524548
tp450
asS'kLLLMPMkbeffgghijjjxxqphroxxwb_1022101120'
p451
(lp452
(I5
I0
tp453
a(F0.16767369331140625
F0.5876756723730117
tp454
a(F6.757838950247561
F-1.8935859813308518
tp455
asS'jLMzMzQbcdefghiiihhhhhxqqkc_122112002'
p456
(lp457
(I5
I2
tp458
a(F0.12746394151041265
F-0.25305796013317444
tp459
a(F4.074888246842262
F2.3518653014182958
tp460
asS'gLMzQbcdefffhhqqxxa_122001'
p461
(lp462
(I2
I0
tp463
a(F0.47737068965517154
F-0.059871527513315335
tp464
a(F6.235950320291712
F-0.36136712390670694
tp465
asS'jLLvMQQbegfihihihhhhassssoj_120011222'
p466
(lp467
(I6
I3
tp468
a(F0.704915028125275
F0.06411809781671024
tp469
a(F6.67071564301705
F-0.21396098534132388
tp470
asS'kLAMLMzkbcbdegghijjhhwhhjsahhw_2112122121'
p471
(lp472
(I3
I2
tp473
a(F0.2501893869394205
F-0.23874723970730283
tp474
a(F3.246496212402355
F0.14432987537248923
tp475
asS'jLLvAQQbeghifghiihhhhcvkkvv_120011221'
p476
(lp477
(I7
I3
tp478
a(F0.3976293103448258
F0.27084738636975847
tp479
a(F6.235950320291706
F-2.7802255296830842
tp480
asS'iLLLQPccegfeehhhhqhaqahxq_20102221'
p481
(lp482
(I1
I3
tp483
a(F0.6187503842852609
F0.5910136704301944
tp484
a(F9.427027654095584
F-0.9978893566813122
tp485
asS'iLLAMPcbeddfghhhhhcvahhwr_12001122'
p486
(lp487
(I6
I2
tp488
a(F0.5504666579992139
F0.009035818907594922
tp489
a(F8.25630842762665
F-2.801804634405758
tp490
asS'kLLLLMQkcedfigjjiijptrnnwdtkwa_1022120110'
p491
(lp492
(I8
I3
tp493
a(F0.33009676292960516
F0.49216586150502584
tp494
a(F9.520611538390636
F-2.593763401253712
tp495
asS'jLvLAQQbfehigghiixullkonnrg_102222110'
p496
(lp497
(I0
I0
tp498
a(F0.31716700851867236
F0.6380811719952701
tp499
a(F7.031080097872147
F0.39571957551690395
tp500
asS'kLALPLAkcbbefgihijjqqjnqahxvqj_0220012002'
p501
(lp502
(I6
I3
tp503
a(F1.1804668482831366
F1.8254249883063003
tp504
a(F11.394492779253124
F-0.3180465101746197
tp505
asS'iLvLQQcbfhegghhghdhdagrwg_12000012'
p506
(lp507
(I7
I3
tp508
a(F0.7343130449258666
F0.04005823702683885
tp509
a(F6.46407957147038
F-0.1496451812542778
tp510
asS'iLLPMPcccdfeghhhhwraahhwr_20102211'
p511
(lp512
(I7
I2
tp513
a(F0.3830766950841158
F0.9385825239437915
tp514
a(F7.870159429830383
F1.4465053101077814
tp515
asS'jvLLPQQeeefgihhiicvcqqcnncc_011112200'
p516
(lp517
(I0
I1
tp518
a(F0.7696483333865648
F0.9214327917746428
tp519
a(F11.331258198979324
F-1.9674008641315144
tp520
asS'jLALLAQbcbefhghiihhwshwwchr_211220112'
p521
(lp522
(I0
I2
tp523
a(F0.2548787848535266
F-0.5832267840048326
tp524
a(F5.142021450517355
F0.0013686371384265654
tp525
asS'jLLAwQPacdefghhiijkaqqsjcqj_200210002'
p526
(lp527
(I4
I0
tp528
a(F0.5818150090927804
F0.7112615873575581
tp529
a(F8.175553685933377
F-1.8830680726134355
tp530
asS'kLLLMwQkbdgfhgiijijdwxxbjutxdw_2101021211'
p531
(lp532
(I8
I1
tp533
a(F0.19207121633715607
F0.13228307456484564
tp534
a(F6.398031196049369
F-2.1863345437948283
tp535
asS'jLMzMzQbcdefghiiihhqqxxxxfo_122001100'
p536
(lp537
(I7
I2
tp538
a(F0.6594827586206894
F0.6614378277661452
tp539
a(F7.818965517241379
F-1.5707963267948972
tp540
asS'gLLAQbeddfffhhcvarw_120011'
p541
(lp542
(I4
I2
tp543
a(F0.27054494740628465
F0.03127717398121609
tp544
a(F5.464551404871076
F0.4543411639040503
tp545
asS'iLMzMPcbcdefghhhhhhhhhhml_12211221'
p546
(lp547
(I3
I2
tp548
a(F0.35278623487461086
F0.2855745700585105
tp549
a(F4.141276208950248
F0.6804967596241613
tp550
asS'iLMzMPcbcdefghhhhhhhxxqdl_12211002'
p551
(lp552
(I4
I3
tp553
a(F0.7604713865892025
F0.5214128616295085
tp554
a(F10.39852739189977
F2.876035242302997
tp555
asS'iLLAPMccecdfgghhpqrrccwan_10221110'
p556
(lp557
(I6
I3
tp558
a(F0.7593797578683286
F0.14232793899059057
tp559
a(F8.667719434071643
F-2.502965833037843
tp560
asS'hLMzMkbcdefggghhqqxxrw_1220011'
p561
(lp562
(I2
I0
tp563
a(F0.49853573900718406
F0.034475766115493585
tp564
a(F7.515142460708937
F-0.6384925512267533
tp565
asS'jLLLQzQcdgfefhiiihfhaqoqhfj_201022201'
p566
(lp567
(I1
I3
tp568
a(F0.015137194850861837
F0.5800513754795085
tp569
a(F8.062028422348053
F-0.7047791107690753
tp570
asS'iLLAPPccecdfghhhhqrwffhxq_20102221'
p571
(lp572
(I0
I3
tp573
a(F0.17027753814149424
F0.19169797349935988
tp574
a(F3.940625841606921
F-2.2131904591170524
tp575
asS'kLLAMzPkcecdfghjijjhqrwqqqaawr_2010220022'
p576
(lp577
(I0
I3
tp578
a(F-0.051911764705883844
F0.15720588235293995
tp579
a(F2.918068710637228
F-2.034443935795703
tp580
asS'jLMzMzQbcdefghiiihhhhhhqqfo_122112200'
p581
(lp582
(I3
I2
tp583
a(F0.6549148061260903
F0.5039247526312125
tp584
a(F6.614397617078445
F0.07293344327543805
tp585
asS'eLMkbcdddhhqqa_1220'
p586
(lp587
(I3
I2
tp588
a(F0.5000000000000004
F4.440892098500626e-16
tp589
a(F3.570889244992063
F-0.7853981633974491
tp590
asS'kLLLLPQkbefgijihjjixxqhrdogxqb_1022101112'
p591
(lp592
(I0
I0
tp593
a(F0.44458432104793066
F0.07208962891355289
tp594
a(F6.760029478630606
F-0.28019371669516124
tp595
asS'hLLLQkbeefeggghhhqhqvc_2111200'
p596
(lp597
(I6
I3
tp598
a(F0.9718146480050124
F0.8609890339571556
tp599
a(F7.661689930613911
F-1.9744211392595437
tp600
asS'jvLLAQQefdgihhiihrloqapgsvc_022221000'
p601
(lp602
(I1
I1
tp603
a(F-0.04279099297406302
F0.27205651874414066
tp604
a(F9.997947275210759
F-2.154322094928407
tp605
asS'iLLLPQccegfgghhhhhhxagrvc_02221000'
p606
(lp607
(I3
I1
tp608
a(F0.3350910019531779
F0.7118571670420081
tp609
a(F9.478892490100993
F-0.7136984295600908
tp610
asS'kLLLALQkcdfgehjiiijqcedqlehgnw_0111220111'
p611
(lp612
(I9
I3
tp613
a(F-0.002933585711940498
F0.7931428576679319
tp614
a(F6.96333394334451
F-2.2054197848420642
tp615
asS'jLLvQAQbefhghhiiihhhahbgqaq_120011110'
p616
(lp617
(I7
I0
tp618
a(F0.8136605787137201
F1.1241074005024674
tp619
a(F10.148031479645486
F-0.8447420854445941
tp620
asS'hLMzMkbcdefggghhhhhhfo_1221122'
p621
(lp622
(I1
I2
tp623
a(F0.5863945149348072
F-0.2794238756713451
tp624
a(F4.602219261111314
F-2.547444171504036
tp625
asS'iLLLMQccdefghghhhftagorfw_20102202'
p626
(lp627
(I7
I3
tp628
a(F0.05623606817483254
F0.5795423040524126
tp629
a(F4.200128450044916
F-2.557631620693767
tp630
asS'jLLLQMPbceegfghiixclemskahw_102221121'
p631
(lp632
(I6
I2
tp633
a(F1.1497106219215898
F0.24937319712199424
tp634
a(F7.261919598364959
F-1.6019915350335379
tp635
asS'jvLLAQQcggfhgihiijxaitxagvc_100001211'
p636
(lp637
(I8
I2
tp638
a(F0.2787396771167055
F1.2274726658727988
tp639
a(F12.845369833562373
F-2.1051707651327893
tp640
asS'iLLvQQcbeghfhhgghhaaarwrw_12001111'
p641
(lp642
(I0
I2
tp643
a(F1.2885889536521469
F0.5750909878960365
tp644
a(F5.3649035046677644
F1.7556057044460633
tp645
asS'gLMzQbcdefffhhhqxpe_122100'
p646
(lp647
(I5
I2
tp648
a(F0.776967896181098
F0.30125476664950135
tp649
a(F4.688651452405275
F-0.5675935538275423
tp650
asS'ivvPQQcfhgfghgfhaaaxhqhxq_01122000'
p651
(lp652
(I4
I0
tp653
a(F0.5000000000000013
F0.4999999999999998
tp654
a(F5.4
F3.1415926535897922
tp655
asS'iLMzMPcbcdefghhhhhhqxqxxq_12210021'
p656
(lp657
(I7
I1
tp658
a(F0.41934228766203285
F0.6657219522938277
tp659
a(F6.232390839577786
F1.7843364108632307
tp660
asS'gLMzQbcdefffhhhhxqh_122110'
p661
(lp662
(I4
I3
tp663
a(F0.5620016016773345
F0.5772498656794022
tp664
a(F7.2998130802601455
F3.054575438783755
tp665
asS'iLLALQccecdhghghhqrwqwqrq_20102220'
p666
(lp667
(I1
I3
tp668
a(F-0.038060475742512756
F0.0035369927474343554
tp669
a(F10.62715742840976
F-0.7213635403279494
tp670
asS'jLALLQPbcbfhghhiixxnqqajsxk_011002120'
p671
(lp672
(I2
I1
tp673
a(F0.31887522626672
F0.27309303147979175
tp674
a(F4.495282927937593
F2.9054871759944363
tp675
asS'jLMzMzQbcdefghiiihhhqxxqhfo_122100122'
p676
(lp677
(I2
I0
tp678
a(F0.4389941874792751
F0.004026671333036737
tp679
a(F8.747183858265235
F-0.5836586204242752
tp680
asS'cPcbbbiht_12'
p681
(lp682
(I1
I2
tp683
a(F0.7499999999999992
F0.4330127018922166
tp684
a(F4.380127018922193
F2.6179938779914953
tp685
asS'fLLQcbecdeehhnkei_12001'
p686
(lp687
(I2
I2
tp688
a(F0.9830901943587306
F0.43096983806352424
tp689
a(F5.052083970434222
F2.8812198778925904
tp690
asS'jLMzMzQbcdefghiiihhhhxxqqsj_122110022'
p691
(lp692
(I5
I2
tp693
a(F0.749034927530446
F0.6582358776827634
tp694
a(F5.304898427702895
F-0.278708312853711
tp695
asS'iLLvQQccdfeghghhqraqsjffk_02221000'
p696
(lp697
(I7
I1
tp698
a(F0.5612969259023854
F0.6493333325833042
tp699
a(F6.144983811228056
F-0.01583262950708642
tp700
asS'jLvvQQQbgihghighixhahvvvnnv_102222111'
p701
(lp702
(I2
I2
tp703
a(F0.5740819577299466
F-1.2120776590328801
tp704
a(F5.9065816547666055
F-2.951467050243328
tp705
asS'kLLLLPQkbcefhhjhijjtsuwckefwqt_2010222120'
p706
(lp707
(I5
I1
tp708
a(F0.739963049459164
F-0.09245020625509773
tp709
a(F9.100485530989559
F0.3461878425719184
tp710
asS'hLLLQkbceegfggxclemskw_1022211'
p711
(lp712
(I6
I0
tp713
a(F0.4823634259332103
F0.2916902357951154
tp714
a(F4.297826135597435
F-1.2404134451261388
tp715
asS'iLLLPQccdgehfghhhshhwwbcg_12220111'
p716
(lp717
(I5
I3
tp718
a(F1.0433045478491612
F0.7579130941116379
tp719
a(F7.208797900003033
F1.6670828909865525
tp720
asS'jLLLMMQccegfghiiilnpebwrpeh_120011112'
p721
(lp722
(I6
I0
tp723
a(F0.7454622783470596
F0.4228043480356837
tp724
a(F7.58010412637395
F-2.645237601084845
tp725
asS'jLLzQPPcdcegfghiihsrhwwchhw_122201121'
p726
(lp727
(I3
I1
tp728
a(F0.4666248863693078
F0.032393173086247305
tp729
a(F5.356250425697751
F-1.17320556257419
tp730
asS'kLALLMMkbcbfhgigjjjxxnqqaqkqjs_0110021200'
p731
(lp732
(I0
I2
tp733
a(F0.4643433618606208
F3.0667680415654544
tp734
a(F20.279287163544563
F2.108446228319061
tp735
asS'jLAwvQQbcbdhigghihhwhaaakkr_211211002'
p736
(lp737
(I3
I1
tp738
a(F1.5974312058212505
F0.8042894727030473
tp739
a(F8.31532813593202
F-0.8942210586264584
tp740
asS'iLLLQMcbceegfghhxclemskar_10222112'
p741
(lp742
(I5
I3
tp743
a(F0.5200949792964049
F-0.201619523074675
tp744
a(F11.756705512060575
F-2.8678135065050987
tp745
asS'iLvPAQcccgfehfghhraaaqswj_12220012'
p746
(lp747
(I4
I1
tp748
a(F0.93734947338029
F0.2458355123666305
tp749
a(F4.665343384816953
F1.7786401776941085
tp750
asS'kLLLMAMkcegfhhhijjjhqhaqjshhbg_1222011022'
p751
(lp752
(I5
I3
tp753
a(F0.9838243420300657
F0.2041068013750859
tp754
a(F6.979067191397274
F0.9720140268148026
tp755
asS'jLMzMzQbcdefghiiihhhqxqqqrg_122100220'
p756
(lp757
(I2
I0
tp758
a(F0.4435061431322945
F-0.03350886213375846
tp759
a(F5.989686688419301
F-0.7967541087119182
tp760
asS'hLvMQkbfegfegghtuhuirw_1200002'
p761
(lp762
(I1
I1
tp763
a(F0.5120556423200895
F0.03842298834486932
tp764
a(F3.908201932413738
F2.837559219002615
tp765
asS'gLLPQccdfeffhwraarw_201022'
p766
(lp767
(I4
I2
tp768
a(F0.15894396551724047
F0.3007831501264154
tp769
a(F3.4094827586206815
F-2.293530574608314
tp770
asS'gLLMQbdeefffxneiahv_102221'
p771
(lp772
(I0
I2
tp773
a(F0.6612773183084337
F0.1280585485427757
tp774
a(F4.789700977377681
F0.4892426525758309
tp775
asS'iLMzMPcbcdefghhhhxqqxhhep_12002112'
p776
(lp777
(I7
I0
tp778
a(F0.24999999999999784
F0.4330127018922209
tp779
a(F4.653846153846155
F-2.6179938779914957
tp780
asS'kLLLMAMkcegfhhhijjjhqhaqfohhrw_2010222211'
p781
(lp782
(I1
I3
tp783
a(F0.9527154507957095
F0.5926724006339913
tp784
a(F12.51765760374586
F-1.0282036033281683
tp785
asS'jLLLMPQcdgfghfhiihrhagrjbhk_022210010'
p786
(lp787
(I3
I1
tp788
a(F0.5947129230529772
F0.07648172625116013
tp789
a(F9.667375496308253
F0.30481973701486803
tp790
asS'kLLLMMMkcdgfhfihjjjqgqabgarqcv_2101222211'
p791
(lp792
(I4
I3
tp793
a(F0.7932066161940382
F0.5823282583143891
tp794
a(F4.511149752564973
F2.5444866092917438
tp795
asS'eLAkbbcdddhwqj_2102'
p796
(lp797
(I3
I3
tp798
a(F0.9258414669245856
F-0.11158386057971921
tp799
a(F2.9736175333740964
F0.13814355024470323
tp800
asS'fLMPcbcdeeehhhhvc_12211'
p801
(lp802
(I1
I2
tp803
a(F0.4867626598401973
F-0.193138230661924
tp804
a(F5.235669066020395
F-2.7816707641888447
tp805
asS'hLLAPkccedfggglnhcrwwv_1200111'
p806
(lp807
(I4
I3
tp808
a(F0.34453786735050845
F0.02975313423970072
tp809
a(F4.677303237253241
F-1.7598947634128455
tp810
asS'jLLLQLQcdfgeehihiqcedhreews_011122010'
p811
(lp812
(I7
I3
tp813
a(F0.6775375052631114
F0.7316100604263843
tp814
a(F7.557721276358794
F-2.4051249018513614
tp815
asS'jLLLMMQbdefhgghiidwuxbrfoxw_210102221'
p816
(lp817
(I6
I3
tp818
a(F0.6194103129275821
F0.012139850168974214
tp819
a(F8.17923556756702
F0.025029931496770463
tp820
asS'jLLvMQQcdfhiihgihhsawknggrn_122201110'
p821
(lp822
(I6
I2
tp823
a(F0.6382500297906817
F0.43422159497536483
tp824
a(F3.9182295257751747
F1.6152095427999908
tp825
asS'hLLwQkbeegfegghhaqqafo_0111000'
p826
(lp827
(I6
I1
tp828
a(F1.2604849907246065
F0.9023292513656661
tp829
a(F11.359135729081258
F0.5057925151051476
tp830
asS'jLMzMzQbcdefghiiihhqqqxhhso_122002112'
p831
(lp832
(I7
I1
tp833
a(F0.2806057201163479
F0.5357001139414145
tp834
a(F5.7967815115531565
F0.5286626286375157
tp835
asS'jLLAPMPcecdfgghiipqrrccwaxn_102211101'
p836
(lp837
(I7
I3
tp838
a(F0.08569612177115309
F-0.3488691821068375
tp839
a(F6.380184480044925
F2.3281883019421667
tp840
asS'jLMzMzQbcdefghiiihhhhxxqqbg_122110022'
p841
(lp842
(I5
I2
tp843
a(F1.227366021310921
F0.6605639050000688
tp844
a(F5.351184146189753
F-0.6962254786625396
tp845
asS'iLwAPMcacedfgghhnnxxaakxk_10022001'
p846
(lp847
(I3
I0
tp848
a(F0.7420153230295586
F0.3633840295197401
tp849
a(F6.750792442783316
F3.1136712523259713
tp850
asS'iLLzMQccdfghfhghhshaswjcw_12220110'
p851
(lp852
(I6
I3
tp853
a(F0.9978712218422604
F0.31971693031287324
tp854
a(F9.435022435933503
F0.8791169266545868
tp855
asS'iLLLMQccdgfghhfhhrhagcrjb_02221001'
p856
(lp857
(I5
I1
tp858
a(F0.6176028435753559
F0.2701174281235035
tp859
a(F5.201632076547406
F2.789483818832273
tp860
asS'iLALPMcbcbfffghhxxnqhxaxk_01100210'
p861
(lp862
(I2
I1
tp863
a(F0.28623674717461633
F0.2707200457500396
tp864
a(F4.187927335549304
F2.9496648538701953
tp865
asS'kLALLAPkcbbeghhjijjqqjnagnxxvc_0220012120'
p866
(lp867
(I9
I3
tp868
a(F-0.2527504070764255
F-0.8704764284070707
tp869
a(F8.36693124757161
F2.255103226304484
tp870
asS'jLMzMzQbcdefghiiihhqqxxxxjs_122001100'
p871
(lp872
(I2
I0
tp873
a(F0.4773706896551756
F-0.0598715275133215
tp874
a(F9.064377445037902
F-0.3613671239067077
tp875
asS'iLLLMQccdgfhgfhhhshasssss_12220110'
p876
(lp877
(I3
I2
tp878
a(F0.24541820635896372
F0.062897872538981
tp879
a(F8.259888036343588
F-0.17842342382200346
tp880
asS'dLQbccchhfo_122'
p881
(lp882
(I1
I2
tp883
a(F0.5226293103448282
F0.05987152751331489
tp884
a(F4.72421218554653
F2.7802255296830856
tp885
asS'jLLAPzQbeddfghiiihhnkbgqqfo_211122200'
p886
(lp887
(I6
I2
tp888
a(F0.8322943761649285
F-0.387198607879966
tp889
a(F8.045694096929317
F2.5142974642723157
tp890
asS'kLAvLQAkbcbgfihhijjhhwhhwwwwhr_2112200112'
p891
(lp892
(I0
I2
tp893
a(F0.2552733016297521
F-0.7026971960720724
tp894
a(F5.276746548385429
F-0.06611819630090306
tp895
asS'iLLwQMcbeefgeghhxxhaahnxn_10221110'
p896
(lp897
(I5
I1
tp898
a(F0.2787549809846045
F0.26755712383919544
tp899
a(F5.7282204082488954
F-0.15509391610982895
tp900
asS'iLMzMPcbcdefghhhhxqqxhhti_12002112'
p901
(lp902
(I2
I3
tp903
a(F0.7500000000000052
F0.4330127018922219
tp904
a(F8.653846153846139
F2.617993877991494
tp905
asS'jLLAPMPacdefgghiijkaqhxkaqj_200210020'
p906
(lp907
(I1
I1
tp908
a(F0.3355714967989974
F-0.03399238191512346
tp909
a(F6.618700894362717
F2.968722719717854
tp910
asS'iLMzMPcbcdefghhhhhqqqqhha_12200221'
p911
(lp912
(I2
I0
tp913
a(F0.499999999999999
F-2.5535129566378612e-15
tp914
a(F6.646803743153548
F-0.7853981633974488
tp915
asS'jLvLQMQcffhegihiiqdttqvdsai_210102011'
p916
(lp917
(I5
I2
tp918
a(F0.19816809297221105
F-0.3798085346397807
tp919
a(F6.049863632087825
F2.8317339789118194
tp920
asS'gLMzQbcdefffhhqqqdl_122002'
p921
(lp922
(I5
I3
tp923
a(F0.3624033214544086
F0.15025875657144067
tp924
a(F4.325956079157856
F-2.3942482354399894
tp925
asS'gLMzQbcdefffhhqqqum_122002'
p926
(lp927
(I2
I0
tp928
a(F0.5582529190964106
F0.06463430696516084
tp929
a(F6.102771589312565
F-0.7473444181498042
tp930
asS'jLMzMzQbcdefghiiihhhhhhqqnk_122112200'
p931
(lp932
(I3
I2
tp933
a(F0.3619643524367954
F0.8405983565717813
tp934
a(F5.541105991920401
F0.37019210971283834
tp935
asS'kLLLMzQkbefggijjiijxxqahxqhqha_1022101102'
p936
(lp937
(I1
I2
tp938
a(F0.5052442444210501
F-0.44435947271856235
tp939
a(F3.8239522708115885
F-0.6015916552233327
tp940
asS'jLLLAAQbegfeghhiixxmparrvpk_102210111'
p941
(lp942
(I3
I1
tp943
a(F0.4447933949274763
F0.6938702661888245
tp944
a(F15.290693673989592
F0.1993330477191723
tp945
asS'iLMzMPcbcdefghhhhhqqxxhha_12200112'
p946
(lp947
(I7
I0
tp948
a(F0.4999999999999988
F0.31652718561007165
tp949
a(F5.373229995238848
F-3.1415926535897922
tp950
asS'kLLALPPkcecdhhihjjjhqrwqqhqhrw_2010222011'
p951
(lp952
(I0
I3
tp953
a(F0.08260342115918104
F0.07587145369162229
tp954
a(F5.1181350075000065
F-2.1702912314750797
tp955
asS'hLMzMkbcdefggghhhhxxjs_1221100'
p956
(lp957
(I3
I2
tp958
a(F0.589230755309173
F0.8727520092517178
tp959
a(F6.116675885326255
F0.09752391520271816
tp960
asS'kLLLLQAkbefgiihihjjhhiubgbnkuw_1200112111'
p961
(lp962
(I9
I2
tp963
a(F-0.1419312615425688
F1.402948658301341
tp964
a(F24.594178832301623
F-1.895467758833961
tp965
asS'jLvAMPQcfefghiihiumuitsdxfi_022111100'
p966
(lp967
(I3
I3
tp968
a(F0.7752542324727884
F0.3164710228404776
tp969
a(F4.112796396435242
F1.565958670661205
tp970
asS'hvLPQkcdegffggfsshqqho_0221100'
p971
(lp972
(I4
I1
tp973
a(F0.33805028218473904
F0.23398108429355519
tp974
a(F4.3860264415151375
F0.6054372186969731
tp975
asS'dLQacccjsnk_200'
p976
(lp977
(I0
I2
tp978
a(F0.7368968986841486
F-0.007765764826075229
tp979
a(F3.7163399630546277
F-0.21461506872564518
tp980
asS'iLvLQQcbehfgghhghhhahrrww_21112200'
p981
(lp982
(I7
I3
tp983
a(F-0.09151404362350946
F0.8415042426064465
tp984
a(F11.261180475454186
F-1.140091596827622
tp985
asS'iLLLMQcbdegfhhghxniannrwn_10222011'
p986
(lp987
(I2
I2
tp988
a(F0.2593570527072371
F0.03915295500826023
tp989
a(F7.243768565365496
F-2.55384355326343
tp990
asS'jLLLMPQbeffgghiiixxqphroxep_102210112'
p991
(lp992
(I5
I0
tp993
a(F0.21710408435529976
F0.5175363323437995
tp994
a(F7.570430625591139
F-1.9198365854261474
tp995
asS'ivLAMQcecfgfhghhccaxuquvk_01111002'
p996
(lp997
(I3
I0
tp998
a(F0.6808957531506565
F0.8481925412673277
tp999
a(F7.109417065215958
F1.6073354551354948
tp1000
asS'kLLLMMPkcdefghijjijhftagohqels_2010220212'
p1001
(lp1002
(I3
I1
tp1003
a(F-0.016807862892539733
F0.48950965371084093
tp1004
a(F7.982187728657859
F-0.7582779794073881
tp1005
asS'jLAwLQPcbbdgghgiihhrhqxahhr_122122012'
p1006
(lp1007
(I2
I0
tp1008
a(F0.6990520415232664
F-0.28847212989796056
tp1009
a(F4.029805250836654
F-0.20061601678566562
tp1010
asS'kLLLMMPkcegfheijhjjhqhaqjhhjrw_2010222211'
p1011
(lp1012
(I4
I3
tp1013
a(F0.7285808692297419
F0.06529153386072377
tp1014
a(F4.487580766784635
F-0.23607074941960152
tp1015
asS'eLPkbcdddhrrcv_1200'
p1016
(lp1017
(I1
I2
tp1018
a(F0.7315021448974771
F0.09317213873771736
tp1019
a(F2.9823494848317003
F2.132530622428171
tp1020
asS'iLMzMPcbcdefghhhhhhhxxqhx_12211002'
p1021
(lp1022
(I5
I2
tp1023
a(F0.8167330920511149
F0.5228702506198668
tp1024
a(F5.123526644999042
F-0.3972034789740091
tp1025
asS'kLLLLPQkcedfihijjjiptrnccbepxc_1022120110'
p1026
(lp1027
(I1
I1
tp1028
a(F0.6261687930158777
F0.574051138995657
tp1029
a(F12.098442241214656
F1.1571279890719401
tp1030
asS'jLLwPQPacdgffhhiijkahwrhkaj_200211002'
p1031
(lp1032
(I7
I1
tp1033
a(F0.6000368288595908
F0.6428470537481624
tp1034
a(F16.20401069611098
F1.674398251269859
tp1035
asS'jLLvMQQbdgfihighixnannnrwrr_102220101'
p1036
(lp1037
(I7
I2
tp1038
a(F1.04641564489161
F0.19326338674997898
tp1039
a(F5.897342864733653
F-0.9073692748280481
tp1040
asS'kLLLMPAkcdgfghfhijjhrhagrjbhxn_0222100101'
p1041
(lp1042
(I7
I1
tp1043
a(F0.4775584478094446
F-0.07560312820006315
tp1044
a(F11.469391956951837
F-2.674799782604674
tp1045
asS'kLLLMLQkcdgfhiihjjjqgqablmrxhg_2101222211'
p1046
(lp1047
(I1
I3
tp1048
a(F0.818390891747293
F0.38457068694422536
tp1049
a(F6.566487947734431
F0.7424485575222355
tp1050
asS'kLAwLPMkcbbdfgihijjhhrhjhwwvhr_1221220112'
p1051
(lp1052
(I0
I3
tp1053
a(F0.15458993295488904
F0.7745499201360548
tp1054
a(F6.13290711321309
F-2.9412748235498847
tp1055
asS'iLLLQPccegfeehhhhqhaxhhha_12220112'
p1056
(lp1057
(I5
I3
tp1058
a(F0.8936571948938515
F0.22433978418289116
tp1059
a(F5.295254456059614
F1.0576240403572301
tp1060
asS'hLLPAkcecfeegghqraxhhr_1222012'
p1061
(lp1062
(I3
I1
tp1063
a(F0.6434744392997126
F0.09377497640637669
tp1064
a(F4.982991162365084
F-1.1093679679797852
tp1065
asS'jLLvQMQcdfhfggiiihshhnbkqqa_100012110'
p1066
(lp1067
(I0
I3
tp1068
a(F1.9416606779127548
F0.7448272184724712
tp1069
a(F8.360936066662013
F-2.0942033596902863
tp1070
asS'jLLLMPQbdgfhihhiidwxxbqboti_210102122'
p1071
(lp1072
(I3
I1
tp1073
a(F-0.018162305516576945
F0.8496652811058508
tp1074
a(F10.76834804530157
F-1.7579583359166682
tp1075
asS'kLLLMAPkbcgehghjjijtsdmjwoxdsw_2010222201'
p1076
(lp1077
(I8
I0
tp1078
a(F0.16704801992729548
F0.8587994719326889
tp1079
a(F22.48661911177513
F1.908188417716186
tp1080
asS'ivLAAQcecfgfghhhccaxllqvk_01111002'
p1081
(lp1082
(I3
I0
tp1083
a(F0.25137733798094397
F0.45877517938464857
tp1084
a(F7.284059277289009
F1.1692695314815829
tp1085
asS'gLvQQadfedefjaaajkk_200211'
p1086
(lp1087
(I4
I2
tp1088
a(F0.25000000000000433
F0.7125265620319725
tp1089
a(F5.895736177955666
F-2.1292593852107844
tp1090
asS'jLAvPAQcbbghffihihhraaanhnw_122110201'
p1091
(lp1092
(I3
I3
tp1093
a(F0.6416880636116729
F0.5490646171103196
tp1094
a(F5.3310145184495115
F2.412418100393768
tp1095
asS'kLLAPLMkcecdfghijijpqrrccaahnw_1022111201'
p1096
(lp1097
(I9
I3
tp1098
a(F0.15048737507393178
F0.3088955337912392
tp1099
a(F5.949480807420982
F-2.6336573626271864
tp1100
asS'jLLzAPQcdfgeihihihshaheppef_122201122'
p1101
(lp1102
(I8
I3
tp1103
a(F0.034303841164216836
F0.06391172956643308
tp1104
a(F6.914470954780672
F2.927067257222857
tp1105
asS'jLLLLQQcedfgihihiptrnbccbwc_102212011'
p1106
(lp1107
(I4
I0
tp1108
a(F0.4670623480936627
F0.5932774766782742
tp1109
a(F11.441303121403756
F-1.7602895003766081
tp1110
asS'jLvvQQQbhigghihgixaxxnvnvkk_102222010'
p1111
(lp1112
(I0
I2
tp1113
a(F0.39380623097186734
F0.15318865275375584
tp1114
a(F5.534639229269886
F0.5243753359942273
tp1115
asS'jLLLAMQcdefgfhiiihftadwaawn_201022011'
p1116
(lp1117
(I5
I0
tp1118
a(F0.6213320444939454
F-0.0964205694798312
tp1119
a(F9.345418367863033
F1.046764238472188
tp1120
asS'jLLAMzQbeddfghiiihhnkahhhha_211122112'
p1121
(lp1122
(I1
I3
tp1123
a(F0.7209811049838839
F-0.4304250091245314
tp1124
a(F19.213882486791977
F0.7121953483602862
tp1125
asS'kLAMzLPkbcbdefhjiijhhwhhhkaakr_2112121102'
p1126
(lp1127
(I0
I1
tp1128
a(F0.7070163158267864
F1.1799309690707098
tp1129
a(F5.800172408779717
F-0.21402194368050884
tp1130
asS'hLMzMkbcdefggghhqqqqwr_1220022'
p1131
(lp1132
(I5
I3
tp1133
a(F0.44201203326063293
F0.04213835308287238
tp1134
a(F5.154267039310614
F-2.6247975645685213
tp1135
asS'kLLLLAQkbefgigjijijxxqhwrqgebp_1022101112'
p1136
(lp1137
(I5
I0
tp1138
a(F0.8218192675425637
F-0.13830282975746216
tp1139
a(F7.174238454787786
F-0.7029455003255943
tp1140
asS'iLvPAQcafefegghhnxxnnkkxn_10012210'
p1141
(lp1142
(I2
I3
tp1143
a(F0.5100305766709734
F0.4276586614102423
tp1144
a(F6.631440118606777
F-2.927131110464871
tp1145
asS'fLLQcbcdeeelonlel_02211'
p1146
(lp1147
(I1
I3
tp1148
a(F0.5594379202883486
F0.0788422963861004
tp1149
a(F4.808931534691339
F-0.9082675932195714
tp1150
asS'kLLAMzMkcdcefghijjjhfrtxhxhxjo_2010211021'
p1151
(lp1152
(I4
I2
tp1153
a(F0.912440059879313
F-0.03202869163252458
tp1154
a(F5.250824522562878
F-2.1909175421995366
tp1155
asS'jLMzMzQbcdefghiiihhhhhhhhvc_122112211'
p1156
(lp1157
(I1
I2
tp1158
a(F0.633783029480177
F-0.29567412782667535
tp1159
a(F4.260724260003739
F-2.4623714040459976
tp1160
asS'jLLvPQQcdeghiihhiqrqsjvcfkf_022210000'
p1161
(lp1162
(I5
I3
tp1163
a(F0.8216464173205719
F0.5280854791342812
tp1164
a(F6.32504215238521
F-1.4108011968093153
tp1165
asS'jLLLAPQcdgfehhiiihfhaqiptef_201022200'
p1166
(lp1167
(I0
I0
tp1168
a(F0.20584282975950863
F0.03893178521463485
tp1169
a(F4.228937729891672
F-1.9328197201291646
tp1170
asS'jLvQLQPadfeghghiijaqqhxhxaj_200211002'
p1171
(lp1172
(I7
I1
tp1173
a(F0.5440199069000125
F0.47754190570124794
tp1174
a(F13.148824831790416
F1.4906826557558448
tp1175
asS'jLLvAQQbefhghgiiihhxavvvccv_120011111'
p1176
(lp1177
(I0
I2
tp1178
a(F-0.013064185279855678
F-0.16549869295527844
tp1179
a(F11.230517614509413
F1.9938107161745757
tp1180
asS'kLAMvLQkbcbdeihjhijxxnxxaaajjk_0110100221'
p1181
(lp1182
(I2
I1
tp1183
a(F-0.05812686291363057
F0.8014226717046277
tp1184
a(F4.903218484041149
F-2.795418800277344
tp1185
asS'gLMzQbcdefffhhhhhit_122112'
p1186
(lp1187
(I3
I2
tp1188
a(F0.3931482498186925
F0.2656952842190465
tp1189
a(F4.438376309496408
F0.594309002458827
tp1190
asS'iLLPwQcccdfehgghhwraahhww_20102211'
p1191
(lp1192
(I7
I1
tp1193
a(F0.8771188435708388
F1.1256254261103535
tp1194
a(F9.591498464793883
F1.7791161472098256
tp1195
asS'iLvLQQcbefehgghhhiiixgrrc_12000011'
p1196
(lp1197
(I4
I2
tp1198
a(F0.45783158728105433
F0.08692379273451524
tp1199
a(F2.451591747314731
F-1.209693609802694
tp1200
asS'jLLAPLQcecdfghihipqrrccaarn_102211120'
p1201
(lp1202
(I7
I0
tp1203
a(F0.640323939088338
F0.031430975689157745
tp1204
a(F7.469488715876988
F-0.3439717492371441
tp1205
asS'hLLLQkcdffggfgqgdatkgc_2101221'
p1206
(lp1207
(I2
I0
tp1208
a(F0.7325110028546896
F0.4153851745163345
tp1209
a(F7.087650278821979
F-0.27148109012214444
tp1210
asS'hLMzMkbcdefggghhqqxxbg_1220011'
p1211
(lp1212
(I5
I1
tp1213
a(F0.3484999980041285
F0.37131137527473346
tp1214
a(F4.521791084324812
F0.5666613982445615
tp1215
asS'jLvvQQQbhigghihgixxaxnnvkkv_011100220'
p1216
(lp1217
(I0
I1
tp1218
a(F0.8542144619029653
F0.8459658642979777
tp1219
a(F7.061750003073557
F-1.0580278456767371
tp1220
asS'iLMzMPcbcdefghhhhhhqxxqti_12210012'
p1221
(lp1222
(I2
I0
tp1223
a(F0.4848014179053951
F-0.11212692393198444
tp1224
a(F7.075018495372818
F-0.26495475230040194
tp1225
asS'kLLLMPMkbdgfhihhjjjdwxxbqboxrg_2101021220'
p1226
(lp1227
(I3
I1
tp1228
a(F0.04452097781145505
F0.8343236876238008
tp1229
a(F10.816597259005537
F-1.810894967833037
tp1230
asS'hLLLQkbdeggfgfenaipnnr_0112022'
p1231
(lp1232
(I0
I2
tp1233
a(F0.6056789664580193
F0.43842049624222995
tp1234
a(F4.480637700333293
F1.5647133935205202
tp1235
asS'iLMzMPcbcdefghhhhhqqxxhqx_12200112'
p1236
(lp1237
(I2
I0
tp1238
a(F0.5211993241992309
F0.11412160170894559
tp1239
a(F7.841023931818218
F-0.7983534634299201
tp1240
asS'eLMkbcdddhhhdu_1221'
p1241
(lp1242
(I2
I0
tp1243
a(F0.48480141790539333
F-0.11212692393199071
tp1244
a(F3.809948352637391
F-0.26495475230040055
tp1245
asS'jLLLLQQacgfgiihihjkjjnlaqms_200212101'
p1246
(lp1247
(I2
I2
tp1248
a(F0.5944603025158282
F0.47586165913957706
tp1249
a(F6.414025623124233
F1.0209497431221997
tp1250
asS'iLLALQcbeddhgghhxxrwxofax_01110001'
p1251
(lp1252
(I3
I1
tp1253
a(F0.7466602540333427
F0.7315591325381494
tp1254
a(F5.020970223165354
F2.0385469429476593
tp1255
asS'kLLAMzMkbeddfghijjjhhcvahhhhrw_1200112211'
p1256
(lp1257
(I8
I2
tp1258
a(F0.3728210930919434
F0.06248988199267572
tp1259
a(F6.618005155831741
F0.5145522896494467
tp1260
asS'jLMzMzQbcdefghiiihhhhxxxxrw_122110011'
p1261
(lp1262
(I5
I2
tp1263
a(F0.9426032306967025
F0.22945932432477464
tp1264
a(F3.9403551894371294
F-0.9343584713565025
tp1265
asS'gLLMQaedfdffjxaxjkn_200211'
p1266
(lp1267
(I2
I2
tp1268
a(F0.05193508404873139
F0.6484751467869571
tp1269
a(F8.324449367174742
F1.3282425955659645
tp1270
asS'hLMzMkbcdefggghhhhhxwb_1221120'
p1271
(lp1272
(I4
I3
tp1273
a(F0.5593433070261814
F0.6173632411054019
tp1274
a(F7.766071922708616
F3.0629427358569465
tp1275
asS'jLMzMzQbcdefghiiihhhhxxqxsf_122110021'
p1276
(lp1277
(I4
I3
tp1278
a(F0.9197240447795295
F0.38312914341133686
tp1279
a(F10.82084956301522
F2.6460153658257304
tp1280
asS'hLLAPkbdeegfggdwdpqgof_2101012'
p1281
(lp1282
(I6
I0
tp1283
a(F0.1339929977797571
F0.06063394575419289
tp1284
a(F4.925125625121877
F-0.21015984702263243
tp1285
asS'hLMzMkbcdefggghhhhhxrg_1221120'
p1286
(lp1287
(I3
I2
tp1288
a(F0.5249605466163004
F0.41978082483581913
tp1289
a(F5.435149932513571
F0.2998885528588381
tp1290
asS'kLLLMPMkbeffgihijjjxxqphxoutiv_1022101102'
p1291
(lp1292
(I2
I2
tp1293
a(F0.1043444519801916
F0.5325762961260371
tp1294
a(F4.237145576283699
F3.1221211548971426
tp1295
asS'eLPkaccddjnkaj_2002'
p1296
(lp1297
(I2
I2
tp1298
a(F0.5941792173157685
F0.8768894076364366
tp1299
a(F8.17914626533806
F1.4126868436262738
tp1300
asS'iLLvQQcbegfhhfghhhheljvkf_12001122'
p1301
(lp1302
(I4
I0
tp1303
a(F0.49376843174443147
F0.3025219261237458
tp1304
a(F5.059158378060177
F0.21064027033463256
tp1305
asS'iLvPQMcccgfeefhhhraaasshr_12220012'
p1306
(lp1307
(I4
I1
tp1308
a(F0.6601897085758752
F0.023383832211534176
tp1309
a(F4.2613355067545164
F1.7157483914452205
tp1310
asS'kLAwLMMkcbbdfhiijjjhhrhjajciea_1221220101'
p1311
(lp1312
(I4
I0
tp1313
a(F-0.5896930871934828
F-1.8615649682689153
tp1314
a(F8.628972943095256
F-0.5993417459831913
tp1315
asS'kLAwLPAkcbbdghiiijjhhrhqaqjshr_1221220102'
p1316
(lp1317
(I2
I0
tp1318
a(F0.6725857529736226
F-0.28367994406664004
tp1319
a(F4.324303644476153
F-0.24354666991846746
tp1320
asS'jLMzMzQbcdefghiiihhhqxqqqwb_122100220'
p1321
(lp1322
(I7
I0
tp1323
a(F0.26939073929544183
F0.36459259230840124
tp1324
a(F6.124240247936761
F3.030671636532865
tp1325
asS'kLLALwQkacdehhihjijjkaqhvavanj_2002100012'
p1326
(lp1327
(I2
I3
tp1328
a(F-0.473920515174238
F0.8014788545556145
tp1329
a(F31.709900964411162
F1.9748743375889908
tp1330
asS'hLLAPkccedfggglnxkrgkw_1200111'
p1331
(lp1332
(I0
I3
tp1333
a(F0.029386818872953326
F0.0362739630618063
tp1334
a(F5.105978061449414
F2.725925850803938
tp1335
asS'jLLvQPQbeghfiggiihhaaahrwqx_120011112'
p1336
(lp1337
(I0
I2
tp1338
a(F1.3465201707053087
F0.5895320763050499
tp1339
a(F5.284007789515197
F1.7497143970579974
tp1340
asS'gLMzQbcdefffhhhhhpe_122112'
p1341
(lp1342
(I4
I3
tp1343
a(F0.37946744679121375
F0.32878937360882665
tp1344
a(F4.569705087615866
F-2.7670745572341238
tp1345
asS'gLMzQbcdefffhhqqxhq_122001'
p1346
(lp1347
(I5
I1
tp1348
a(F0.5339439655172408
F-0.02993576375665739
tp1349
a(F3.340522472164074
F0.8480620789814822
tp1350
asS'fLLQccecddehqrwjj_20102'
p1351
(lp1352
(I4
I0
tp1353
a(F0.8309113271795272
F-0.1243856568964727
tp1354
a(F3.5613205079837216
F0.583607292351305
tp1355
asS'jLLLQzQbeegefhiiihhxaxahhwr_120011122'
p1356
(lp1357
(I6
I2
tp1358
a(F0.6278318508226975
F0.4943211805107938
tp1359
a(F6.955955023090253
F-0.06804568048419944
tp1360
asS'iLLAPPcbeddfghhhhhnkbgqqa_21112220'
p1361
(lp1362
(I3
I0
tp1363
a(F0.5036874194799601
F-0.03110745308906451
tp1364
a(F9.363978759778403
F1.5219186946401133
tp1365
asS'jLvLAQQbegehgiihixlhlvnfsgb_102222111'
p1366
(lp1367
(I3
I3
tp1368
a(F0.37739134578701355
F-0.5864078319948075
tp1369
a(F6.033351674432397
F-2.737859943908904
tp1370
asS'jLLwzQQacdfgihhiijkakmaljcv_200211002'
p1371
(lp1372
(I7
I0
tp1373
a(F0.7721172433309988
F1.0593668678414043
tp1374
a(F13.422480522566874
F1.984542036661905
tp1375
asS'iLLLAQccdgfeghhhhfhaqfipa_20102220'
p1376
(lp1377
(I3
I1
tp1378
a(F0.20289720652882456
F0.42485774801426807
tp1379
a(F6.902016500378293
F-0.8843893373733832
tp1380
asS'kLALLQzkbcbfhghhijjxxnqqajsxxn_0110021201'
p1381
(lp1382
(I4
I1
tp1383
a(F0.26218710379776766
F1.1208250088537783
tp1384
a(F10.044066396967194
F0.7916025427758958
tp1385
asS'jLLAMLQcecdfgihiihqrwqqookn_201022000'
p1386
(lp1387
(I0
I3
tp1388
a(F-0.0820969683503172
F0.1221119864974576
tp1389
a(F3.5485283438005286
F-1.9953405349198952
tp1390
asS'fLMPcbcdeeehhqqnk_12200'
p1391
(lp1392
(I3
I2
tp1393
a(F0.7639091983887044
F0.34428502707953906
tp1394
a(F4.49663580533845
F-0.5659145136520224
tp1395
asS'kLLLAPMkccgeggihjjjlntiagaaxxa_1200111221'
p1396
(lp1397
(I8
I2
tp1398
a(F0.5100417348596169
F-0.1703649815921295
tp1399
a(F3.4315523356101303
F0.13977827260746414
tp1400
asS'jLMzMzQbcdefghiiihhhhxxqxjo_122110021'
p1401
(lp1402
(I5
I2
tp1403
a(F0.9472170311261675
F0.17598273506451728
tp1404
a(F4.960019247686716
F-0.9106796217550529
tp1405
asS'hLLAMkbeddfggghhcvahqx_1200112'
p1406
(lp1407
(I4
I2
tp1408
a(F0.25781250000000244
F0.062009796353075686
tp1409
a(F5.0625
F0.5974064166453492
tp1410
asS'jLLLMMQcegfheiiihhqhaqjhxqj_201022221'
p1411
(lp1412
(I4
I3
tp1413
a(F0.7412768947953569
F0.05760816993753814
tp1414
a(F4.4208175251438755
F-0.21908933657577204
tp1415
asS'iLMzMPcbcdefghhhhhhqxqqul_12210022'
p1416
(lp1417
(I7
I0
tp1418
a(F0.2875534002434872
F0.38636480875947565
tp1419
a(F5.82978795368135
F-3.0222930753486534
tp1420
asS'cPcbbbdxm_10'
p1421
(lp1422
(I1
I0
tp1423
a(F0.7499999999999994
F0.4330127018922188
tp1424
a(F2.653846153846154
F1.5707963267948966
tp1425
asS'hLLzQkcdfgefggqraqqsjk_0222100'
p1426
(lp1427
(I6
I1
tp1428
a(F0.6425104899354739
F0.5576230726590365
tp1429
a(F6.496047016605427
F-0.22128239745176764
tp1430
asS'kLLLAMAkcdefgfhiijjhftadwaawan_2010220110'
p1431
(lp1432
(I6
I2
tp1433
a(F0.9799270321568603
F0.846101225928834
tp1434
a(F15.95925312524755
F1.577613869418468
tp1435
asS'jLLLAMQbegfegihiihhqhhjqsxh_120011210'
p1436
(lp1437
(I3
I0
tp1438
a(F0.6743202212113157
F-0.41208921817616634
tp1439
a(F7.889294142500902
F2.107894279962071
tp1440
asS'kLLLLAQkacfighjjiijjkglwmmidfs_2002121011'
p1441
(lp1442
(I3
I1
tp1443
a(F0.21185138567599215
F0.06096724952201757
tp1444
a(F4.427692664311902
F-2.6297188943189505
tp1445
asS'jLLLQzQcegfeehiiihqhaxhhhbg_122201122'
p1446
(lp1447
(I5
I3
tp1448
a(F0.9241807494623802
F0.25365789769556996
tp1449
a(F5.620079652909767
F1.051113575274866
tp1450
asS'kLLLMwQkbcfehgijjijxcxecvqqhxo_1022211022'
p1451
(lp1452
(I2
I0
tp1453
a(F1.0374522918462226
F0.17255487160519237
tp1454
a(F10.201060130190905
F0.09775495635851937
tp1455
asS'jLLLMMQcdgfhfihiiqgqabgarxh_210122221'
p1456
(lp1457
(I7
I2
tp1458
a(F0.6281561789994556
F0.3791507875444847
tp1459
a(F4.224595974153056
F2.807779532468616
tp1460
asS'jLvLMQQbdhgfhhiiihwhrrrwrkn_211122000'
p1461
(lp1462
(I8
I2
tp1463
a(F1.1212822604883799
F0.49402972458048644
tp1464
a(F7.078247115669891
F1.8564464044917102
tp1465
asS'jLLPMzQccdfeghiiihwraahhhxq_201022112'
p1466
(lp1467
(I7
I2
tp1468
a(F0.3158804815911148
F1.1863186777626609
tp1469
a(F9.246707884719502
F1.338321633424676
tp1470
asS'iLLAMPccdcefghhhhfrtxhxjo_20102110'
p1471
(lp1472
(I1
I2
tp1473
a(F0.6562789428845787
F0.7574777816089484
tp1474
a(F5.348647590443488
F-1.2074104490573496
tp1475
asS'kLLLMLQkcdgfeiijhjjhshasqqasqs_1222011022'
p1476
(lp1477
(I4
I0
tp1478
a(F0.581473611947891
F0.214684331877523
tp1479
a(F5.149778009048742
F2.667636487857834
tp1480
asS'iLvLQQcbdhggfhhghwhhrrrww_21112200'
p1481
(lp1482
(I5
I0
tp1483
a(F0.5215068049769278
F0.08113331586157466
tp1484
a(F5.381586254301413
F1.086397193159273
tp1485
asS'jLLAwAQcecdfhgiiihqrwqaaxhq_201022001'
p1486
(lp1487
(I2
I3
tp1488
a(F0.33790587549247014
F0.5066814611612221
tp1489
a(F6.6682581689377045
F0.06042826250770234
tp1490
asS'iLLLQPcbeegefhhhhhxaxahqx_12001112'
p1491
(lp1492
(I3
I2
tp1493
a(F0.5000000000000003
F-1.7486012637846221e-15
tp1494
a(F3.8183766184073558
F-0.7853981633974495
tp1495
asS'gLPLQbdcefffhbbqqvc_211100'
p1496
(lp1497
(I5
I3
tp1498
a(F0.4999999999999996
F0.8002425902201227
tp1499
a(F6.557889624817611
F-1.9082407495879
tp1500
asS'kLLLLPQkbeefihjhijjhhxannxkkxx_1200111220'
p1501
(lp1502
(I3
I2
tp1503
a(F0.4112873389681387
F0.9407741165784745
tp1504
a(F7.8085123072806635
F-1.6040516914966636
tp1505
asS'gLMzQbcdefffhhhqxti_122100'
p1506
(lp1507
(I2
I0
tp1508
a(F0.48452075357516844
F-0.02427817515426195
tp1509
a(F6.019006927189827
F-0.5675935538275423
tp1510
asS'fLLQcaedeedjxahqj_20021'
p1511
(lp1512
(I2
I2
tp1513
a(F0.3325783424903269
F0.7038423836225668
tp1514
a(F8.143140814448673
F1.3318180093063654
tp1515
asS'iLAvPQcbcbgfhfghxxnaaajjk_01100221'
p1516
(lp1517
(I2
I1
tp1518
a(F0.1845830148564228
F0.6147537735170969
tp1519
a(F4.007704534031436
F3.0942923204767023
tp1520
asS'iLMzMPcbcdefghhhhhhqxxqha_12210012'
p1521
(lp1522
(I7
I0
tp1523
a(F0.4740373974329243
F0.12465723687528107
tp1524
a(F4.77898267356012
F2.8106545131221434
tp1525
asS'kLLAwQzkacdefghhijjjkaqqsjcqqj_2002100020'
p1526
(lp1527
(I1
I1
tp1528
a(F0.7390237963623432
F-0.18154181060492652
tp1529
a(F7.338997725667051
F-2.9831813156626312
tp1530
asS'ivLAPQceddfhgghhgwfletbbv_21001011'
p1531
(lp1532
(I2
I1
tp1533
a(F0.4570533057827442
F0.059221376419687104
tp1534
a(F7.615562157467272
F0.1288542349393254
tp1535
asS'kLLLALQkbcfeehhijjjtsmlaqllnnw_2010222111'
p1536
(lp1537
(I6
I3
tp1538
a(F0.6476853894082658
F0.56149250509053
tp1539
a(F13.12471538567165
F-0.4711201705487107
tp1540
asS'jLLMMzQaedfdghiiijxaxjxxxhq_200211001'
p1541
(lp1542
(I2
I2
tp1543
a(F-0.19232424878880788
F0.5973743631845386
tp1544
a(F8.468934524309981
F1.3443590136324803
tp1545
asS'gvLQQcdeffefwwraara_201102'
p1546
(lp1547
(I3
I1
tp1548
a(F0.4202586206896562
F0.3307189138830715
tp1549
a(F4.909482758620692
F-1.5707963267948974
tp1550
asS'iLLLAQcbdfggghhhxnqahvhei_10222011'
p1551
(lp1552
(I2
I2
tp1553
a(F0.24885853554947715
F-0.2469453514782401
tp1554
a(F7.144219442945707
F-2.4823374598568577
tp1555
asS'jLvvQQQbhigghiihghhhagwwrrg_120000122'
p1556
(lp1557
(I6
I3
tp1558
a(F0.5626468874110123
F0.9477612303610646
tp1559
a(F6.989044756851025
F1.561444840629283
tp1560
asS'eLMkbcdddhxqlm_1200'
p1561
(lp1562
(I2
I3
tp1563
a(F0.7499999999999996
F0.43301270189221824
tp1564
a(F4.653846153846156
F2.617993877991495
tp1565
asS'fLLQcbeddeehhnkhh_21112'
p1566
(lp1567
(I2
I3
tp1568
a(F0.005588235294117535
F0.513823529411766
tp1569
a(F5.836137421274458
F0.463647609000806
tp1570
asS'fLLQcacdedejkaajk_20021'
p1571
(lp1572
(I1
I0
tp1573
a(F0.09076106164547659
F-0.7962930892513791
tp1574
a(F8.862175610568206
F2.7096916426619866
tp1575
asS'kLLLMwQkbedgfhgijijhhnagbrhhsw_0111022201'
p1576
(lp1577
(I9
I0
tp1578
a(F0.3214069598011119
F0.7851992117330451
tp1579
a(F12.177948366086584
F-1.318152352638447
tp1580
asS'jLLLAAQcdffgfhiiiqgdatgqhkc_210122102'
p1581
(lp1582
(I5
I2
tp1583
a(F0.11121848042314852
F0.03504288439099237
tp1584
a(F6.9626541516524485
F3.0345036236003233
tp1585
asS'iLMzMPcbcdefghhhhhhhhhhdu_12211221'
p1586
(lp1587
(I6
I0
tp1588
a(F0.558774002960639
F-0.05826162175237906
tp1589
a(F4.523194913180396
F-0.10389147676845593
tp1590
asS'kLLAwwQkcddefgjiijjhsjahahofha_1000110001'
p1591
(lp1592
(I1
I3
tp1593
a(F0.6197465797932892
F0.9416296528937008
tp1594
a(F9.148967253521144
F-0.11440656010492406
tp1595
asS'iLAwLQccbbdfhgghhhrhjaajw_12212201'
p1596
(lp1597
(I0
I1
tp1598
a(F0.9312187195348071
F-1.2245117562024213
tp1599
a(F6.475158947793355
F-2.815044223415882
tp1600
asS'kLLLLMQkccefigjjihjlnewgbxikjt_1200111212'
p1601
(lp1602
(I7
I0
tp1603
a(F0.5705779949142396
F-0.10367441406485982
tp1604
a(F6.062983159509627
F0.4382902744446715
tp1605
asS'gLLAQcdcefffhfrtxjo_201021'
p1606
(lp1607
(I2
I1
tp1608
a(F0.24344395821430037
F0.10419057892987933
tp1609
a(F5.32619384642008
F0.08220471162952965
tp1610
asS'jLLAMzQcdcefghiiihfrtxhxhum_201021102'
p1611
(lp1612
(I4
I2
tp1613
a(F0.9086882599123861
F-0.053266841209655545
tp1614
a(F5.091130042724385
F-2.1769243529890963
tp1615
asS'jvLAPPQcedgfhihiibwbqqbwrrg_102021110'
p1616
(lp1617
(I7
I1
tp1618
a(F0.2726293103448369
F0.6015663002528304
tp1619
a(F9.771484226224453
F-2.7802255296830864
tp1620
asS'iLMzMPcbcdefghhhhhhhhhqxh_12211220'
p1621
(lp1622
(I6
I0
tp1623
a(F0.5034646834554037
F-0.16062779928278328
tp1624
a(F4.937341257381784
F-0.6185216279494108
tp1625
asS'jLLLPPQbeeehhihiihhxxxvhvqx_120011112'
p1626
(lp1627
(I7
I2
tp1628
a(F0.3540041881610369
F0.9088076677722672
tp1629
a(F7.661197360598737
F0.8570719478501314
tp1630
asS'jLLwQMPbeefgeghiixxhaahnxxn_102211101'
p1631
(lp1632
(I7
I0
tp1633
a(F0.32108652871988475
F0.21411668521546448
tp1634
a(F5.718787698003104
F-1.2129391243573118
tp1635
asS'iLvLQQcbehfgghhghuhuagrwg_12000012'
p1636
(lp1637
(I1
I1
tp1638
a(F0.5996164960264005
F0.21111034192235387
tp1639
a(F5.799285443557766
F2.6313598995668452
tp1640
asS'hvLPQkcedfggfgwrwxqaar_2011022'
p1641
(lp1642
(I6
I3
tp1643
a(F0.4596925181352348
F0.08562643361842923
tp1644
a(F5.287226241218249
F1.0090620311616225
tp1645
asS'jLMzMzQbcdefghiiihhhhhxqxrg_122112001'
p1646
(lp1647
(I5
I2
tp1648
a(F0.5094491982180928
F0.0287655658045658
tp1649
a(F3.6667358933870595
F2.278265790811432
tp1650
asS'jLvLAQQbefegghiiihiiigrrvrw_120000111'
p1651
(lp1652
(I4
I2
tp1653
a(F0.5563348744376062
F0.11611486381530874
tp1654
a(F3.1126915827484676
F-1.0442616076426428
tp1655
asS'jLMzMzQbcdefghiiihhhhxxqxkc_122110021'
p1656
(lp1657
(I4
I3
tp1658
a(F0.7107674958484578
F0.6076670319444595
tp1659
a(F11.193245639335482
F3.0033603943798197
tp1660
asS'kLLLLMQkbdefgjhiijjhrugrxknrxx_1200012110'
p1661
(lp1662
(I3
I3
tp1663
a(F0.6001566353611641
F0.1456439734597006
tp1664
a(F7.013823884643377
F-0.7006550334195096
tp1665
asS'jLLvMQQcdfigighhiqrawsrffkj_022210001'
p1666
(lp1667
(I7
I1
tp1668
a(F0.7979550358814416
F1.0617086869493377
tp1669
a(F7.579125597597298
F0.04715143036629552
tp1670
asS'fLLQcbeddeehhcvxx_12001'
p1671
(lp1672
(I1
I2
tp1673
a(F0.7120115291197364
F0.08255154055205824
tp1674
a(F6.3166492078364165
F3.054575438783756
tp1675
asS'kLLAMLMkcecdfgihjjjhqrwqqooxhq_2010220001'
p1676
(lp1677
(I0
I3
tp1678
a(F0.02868464116897393
F0.1318156423097709
tp1679
a(F3.5577620005657065
F-2.120344580709607
tp1680
asS'kLLAPzMkcecdfghijjjhqrwffhhhqx_2010222112'
p1681
(lp1682
(I2
I3
tp1683
a(F0.33732379293655307
F0.4867328348836043
tp1684
a(F9.257309835009575
F0.29868093155767506
tp1685
asS'gLLPQccdeffflncxqnw_120011'
p1686
(lp1687
(I4
I3
tp1688
a(F0.4741800093531532
F0.5252581904404922
tp1689
a(F6.076768639071306
F-1.1372948106035323
tp1690
asS'iLAPzMcbcbeefghhhhwjsahhw_21122121'
p1691
(lp1692
(I3
I2
tp1693
a(F0.5068472838632724
F0.0032210203565807764
tp1694
a(F6.221330607123312
F0.7923375797886262
tp1695
asS'iLvwQQcbeghfhgghhehapgrwg_21112202'
p1696
(lp1697
(I6
I1
tp1698
a(F0.29634220540483747
F0.7292163689839976
tp1699
a(F7.816154715961891
F1.9522607191835437
tp1700
asS'fLLQcbddeeehrcdui_12000'
p1701
(lp1702
(I2
I1
tp1703
a(F0.4429229831293397
F0.38523449517026914
tp1704
a(F4.279800902148776
F-1.3741838923409022
tp1705
asS'hLLLQkcdefeggghftaqgcn_2010220'
p1706
(lp1707
(I3
I1
tp1708
a(F0.25087622988426134
F0.5765143887533205
tp1709
a(F6.46575959212154
F-1.0203020200558826
tp1710
asS'jLvQwAQcdcfehghiihrrhhaawhw_122200221'
p1711
(lp1712
(I5
I0
tp1713
a(F0.4194820662027979
F-0.29919366207225634
tp1714
a(F7.991027684273383
F-0.6534356013320572
tp1715
asS'kLLLMMPkcdgfhfijjijqgqabgaqths_2101222210'
p1716
(lp1717
(I7
I2
tp1718
a(F0.525465958111726
F0.5928538537388839
tp1719
a(F4.514331196135464
F2.982747695264472
tp1720
asS'hLMzMkbcdefggghhhhhhsj_1221122'
p1721
(lp1722
(I6
I0
tp1723
a(F0.5488097874235546
F-0.07005944093377628
tp1724
a(F4.436251474783353
F-0.12697031003750206
tp1725
asS'jLMzMzQbcdefghiiihhhhxxqqwr_122110022'
p1726
(lp1727
(I4
I3
tp1728
a(F0.5750473338099379
F0.36606166133006574
tp1729
a(F11.117288902658931
F3.1124787434859242
tp1730
asS'jLLLAMQcdgfegihiihfhaqfhaos_201022201'
p1731
(lp1732
(I0
I0
tp1733
a(F0.23816035887729742
F0.07014974788311619
tp1734
a(F4.4240142092886785
F-1.9658657833792434
tp1735
asS'hLMzMkbcdefggghhhqxqnv_1221002'
p1736
(lp1737
(I5
I2
tp1738
a(F0.8746167791246814
F0.27379218591500193
tp1739
a(F4.659032057439622
F-0.7763191542875197
tp1740
asS'hLLAMkcddefggghsjahqaq_1000110'
p1741
(lp1742
(I2
I3
tp1743
a(F0.5338133470824121
F-0.6329963623164405
tp1744
a(F5.347328339841829
F2.6589626670467745
tp1745
asS'jLLvMQQcdfeghghiihsasrggnws_122201110'
p1746
(lp1747
(I4
I0
tp1748
a(F0.5990479530941056
F0.18690943721884226
tp1749
a(F5.315903072104412
F2.7053782912229036
tp1750
asS'iLLLQPcbefgeghhhxxqaqhqax_10221012'
p1751
(lp1752
(I0
I2
tp1753
a(F0.839105863389218
F0.09403213088061359
tp1754
a(F5.573564258981317
F0.3334428997913069
tp1755
asS'jLvPAQPafefegghiinxxnnkkxxn_100122101'
p1756
(lp1757
(I5
I0
tp1758
a(F-0.4808033337763365
F0.8491666723744584
tp1759
a(F15.70141663479236
F0.8251764662809573
tp1760
asS'jLLPwAQccdfehgihihwraahhhwr_201022112'
p1761
(lp1762
(I4
I1
tp1763
a(F-0.05019705539828865
F0.6611212785480127
tp1764
a(F6.641637354735752
F-2.2810128815358235
tp1765
asS'hLLAPkbeddfggghhnkbgfo_2111222'
p1766
(lp1767
(I3
I0
tp1768
a(F0.4848230950343204
F0.046832121573511284
tp1769
a(F8.338295693416004
F1.7800111642976664
tp1770
asS'hLLLQkcdgfefgghfhaqofo_2010222'
p1771
(lp1772
(I3
I0
tp1773
a(F0.3236269489501383
F1.0867301733606813
tp1774
a(F9.032331332634424
F-1.6768872176337863
tp1775
asS'jLLvMQQbegfhihihihhhajjjjfs_120011222'
p1776
(lp1777
(I1
I1
tp1778
a(F0.5278640450004304
F0.12823619563341837
tp1779
a(F8.763932022500194
F-2.903275191779927
tp1780
asS'gLMzQbcdefffhxqqxha_120021'
p1781
(lp1782
(I5
I1
tp1783
a(F0.5000000000000021
F5.768888059150701e-16
tp1784
a(F4.380127018922188
F0.5235987755982968
tp1785
asS'iLLvQQcbeghffhghxxaaabbwr_10221111'
p1786
(lp1787
(I6
I0
tp1788
a(F-0.14552614310228493
F0.02366680235454982
tp1789
a(F5.823628722764119
F2.98406339548527
tp1790
asS'jLLzMPQcdfgghhiiihshawjwpph_122201102'
p1791
(lp1792
(I6
I3
tp1793
a(F0.898380222157323
F0.29104047515459425
tp1794
a(F10.3822463562567
F0.26185626259591094
tp1795
asS'kLLLMMAkbdefhgghijjdwuxbrfoxhr_2101022212'
p1796
(lp1797
(I2
I3
tp1798
a(F1.559161313887554
F1.6867499923508298
tp1799
a(F10.947551650289734
F2.117823206144076
tp1800
asS'iLMzMPcbcdefghhhhhqqxxhep_12200112'
p1801
(lp1802
(I7
I0
tp1803
a(F0.2387671387670415
F0.2750933858161043
tp1804
a(F3.542696942562065
F-2.306217222663717
tp1805
asS'hLLMMkbedfeggghhcqxcvn_1200121'
p1806
(lp1807
(I2
I1
tp1808
a(F0.24488129371627834
F0.6710388791098486
tp1809
a(F6.640726238781806
F-1.2741177108617128
tp1810
asS'hLLzQkcdfgegfghshahwwc_1222011'
p1811
(lp1812
(I6
I3
tp1813
a(F0.7748815683561874
F0.34653173143075156
tp1814
a(F8.363012039424719
F0.5585291506090593
tp1815
asS'kLALPMzkbcbfffghijjxxnqhxaxxxk_0110021010'
p1816
(lp1817
(I5
I3
tp1818
a(F0.7597577463551477
F1.311579021792245
tp1819
a(F12.308370610256272
F-0.2868208386559455
tp1820
asS'hLLPAkccdfefgghwraarhw_2010221'
p1821
(lp1822
(I1
I2
tp1823
a(F0.3607770121465499
F1.0030412378965508
tp1824
a(F10.327401421429263
F-1.5165517068940368
tp1825
asS'ivvPQQcfghghfghfaqqhhaxxa_10000122'
p1826
(lp1827
(I5
I3
tp1828
a(F0.5000000000000002
F0.5000000000000011
tp1829
a(F5.3999999999999995
F1.5707963267948966
tp1830
asS'iLMzMPcbcdefghhhhhhhhxqpe_12211200'
p1831
(lp1832
(I4
I3
tp1833
a(F0.8421149736886735
F0.518558925137928
tp1834
a(F9.105252603645676
F2.750598578851535
tp1835
asS'hLLLQkbceegfggtsumxfjr_2010222'
p1836
(lp1837
(I3
I3
tp1838
a(F0.6527915149660114
F0.5093223786921827
tp1839
a(F6.689406570882864
F2.5872109256130003
tp1840
asS'jLLzMPQcdfghgihiiqraqwjdsuq_022210012'
p1841
(lp1842
(I4
I0
tp1843
a(F0.5450155922121995
F-0.17752919858073288
tp1844
a(F4.319594491697895
F1.0164471052598048
tp1845
asS'kLALPLMkcbbegfihijjhhrwhhaarhr_1221100112'
p1846
(lp1847
(I6
I3
tp1848
a(F0.3761001864235047
F-0.3602871133993716
tp1849
a(F8.125195051906767
F-0.6702656106767693
tp1850
asS'kLLLMLQkcdefghijjijhftagftiaqo_2010220200'
p1851
(lp1852
(I9
I3
tp1853
a(F-1.142348117638606
F3.6230308750065383
tp1854
a(F30.242592079762495
F-1.9564758864117606
tp1855
asS'iLLPLQcbcfffhgghlohmgoonr_02211002'
p1856
(lp1857
(I3
I0
tp1858
a(F0.821830910090879
F0.5247635352510432
tp1859
a(F9.685281120076995
F3.028736915140413
tp1860
asS'iLLPPMcaceeffghhjkqsbjqqj_20021202'
p1861
(lp1862
(I4
I0
tp1863
a(F0.49315651699064694
F0.28518431356802704
tp1864
a(F8.335007203525379
F-1.5243121665271024
tp1865
asS'jLvLQAQcfghehfiiiqdqtqsrlmu_210102010'
p1866
(lp1867
(I8
I2
tp1868
a(F0.7881980478843835
F0.23326527932286142
tp1869
a(F6.438494444504456
F-0.6212830699038902
tp1870
asS'jLvvQQQbhigghiihghaaagrrrrg_120000111'
p1871
(lp1872
(I1
I2
tp1873
a(F0.673856550114072
F-0.04597406620119486
tp1874
a(F2.282428377958795
F1.9078251010938172
tp1875
asS'kLLLMLQkcdefghjjiijhftagfduipo_2010220200'
p1876
(lp1877
(I6
I1
tp1878
a(F0.5733131192956147
F0.2188607644053424
tp1879
a(F9.17302845038562
F-0.8768306995870928
tp1880
asS'kLLLLQAkacgfgiihijjjkjjnlaqmqj_2002121012'
p1881
(lp1882
(I6
I2
tp1883
a(F0.06679009366733023
F0.45396289731864214
tp1884
a(F12.47574553305892
F-1.5539289936028706
tp1885
asS'hLMzMkbcdefggghhhqxxrg_1221001'
p1886
(lp1887
(I2
I0
tp1888
a(F0.4718254344422396
F-0.07240029542329927
tp1889
a(F6.824696574785673
F-0.39089695447442635
tp1890
asS'iLMzMPcbcdefghhhhhhhxxqqa_12211002'
p1891
(lp1892
(I4
I3
tp1893
a(F0.4138688913343193
F0.4215288827301386
tp1894
a(F8.089438939108735
F-2.913517800338718
tp1895
asS'jLvQwAQadfedghhiijaqqjaajqj_200211002'
p1896
(lp1897
(I0
I3
tp1898
a(F0.34307048387287226
F0.3179834739689388
tp1899
a(F5.770950857376523
F3.02570367042826
tp1900
asS'gLMzQbcdefffhxqqxxq_120021'
p1901
(lp1902
(I2
I3
tp1903
a(F0.7499999999999871
F0.43301270189222896
tp1904
a(F6.653846153846154
F2.617993877991496
tp1905
asS'hLLAPkcecdfggghqrwffwr_2010222'
p1906
(lp1907
(I0
I3
tp1908
a(F0.10406991622131338
F0.15671568261564514
tp1909
a(F3.623791513461576
F-2.0265264427444882
tp1910
asS'jLLLzQQbeeeghihiixxaabrwrrg_011102222'
p1911
(lp1912
(I7
I0
tp1913
a(F0.04904624283223133
F0.596427060142448
tp1914
a(F9.960703030799586
F3.07261893128308
tp1915
asS'iLLAMPcbeddfghhhhhnkahhbg_21112211'
p1916
(lp1917
(I1
I3
tp1918
a(F0.8114248655157399
F-0.18880892080168982
tp1919
a(F16.50297328141332
F0.7072697191632636
tp1920
asS'iLLLMQccegfhegghhqhaqjwrj_20102222'
p1921
(lp1922
(I4
I3
tp1923
a(F0.7559393210164422
F0.04712952842571639
tp1924
a(F4.295148982191789
F-0.1907578016374602
tp1925
asS'jLLLPMQcdgehfhiiihshhwwchah_122201112'
p1926
(lp1927
(I5
I3
tp1928
a(F1.0520647527038376
F0.8224980632203264
tp1929
a(F7.539138455193184
F1.6886381682825455
tp1930
asS'dLQbccchhsj_122'
p1931
(lp1932
(I2
I0
tp1933
a(F0.47737068965517165
F-0.059871527513313344
tp1934
a(F3.4075231955455165
F-0.3613671239067077
tp1935
asS'iLMzMPcbcdefghhhhhqqxxhti_12200112'
p1936
(lp1937
(I2
I0
tp1938
a(F0.5245171443490538
F-0.021527901320190005
tp1939
a(F8.528423105240174
F-0.44100167436055565
tp1940
asS'fLMPcbcdeeehhqqvc_12200'
p1941
(lp1942
(I2
I0
tp1943
a(F0.49130289846937353
F-0.013691487914475055
tp1944
a(F5.486272930406194
F-0.5659145136520211
tp1945
asS'iLLAwQccecdfhghhhqrwqaakn_20102200'
p1946
(lp1947
(I0
I3
tp1948
a(F0.06435694966008135
F0.22165192377149912
tp1949
a(F2.9823494848316994
F-2.1325306224281704
tp1950
asS'iLMzMPcbcdefghhhhhhhhxqti_12211200'
p1951
(lp1952
(I5
I2
tp1953
a(F0.5146039602402803
F0.07256819482109202
tp1954
a(F3.8068718956825047
F2.338749490043781
tp1955
asS'gLLAQcecdfefhqrwqjj_201022'
p1956
(lp1957
(I4
I3
tp1958
a(F0.7331281767444716
F-0.014756945063319057
tp1959
a(F3.429345074512861
F0.05523974731542839
tp1960
asS'hLLLQkbdfggfgfxnqahnvc_1022201'
p1961
(lp1962
(I2
I2
tp1963
a(F0.22551876878481186
F-0.15818566155188832
tp1964
a(F6.162180730863037
F-2.492238881849455
tp1965
asS'jvLPPAQegffghhiiiwapaauawcv_120200111'
p1966
(lp1967
(I1
I0
tp1968
a(F0.7902160470104966
F-0.3122868160714758
tp1969
a(F7.125868313757994
F0.28393123097589695
tp1970
asS'kLLLLPQkbefgghhjijjxxqhrbwxbep_1022101112'
p1971
(lp1972
(I5
I0
tp1973
a(F0.3381282466719753
F-0.2130598517333467
tp1974
a(F5.96750665101836
F-1.2075261031795976
tp1975
asS'hLvMQkbefgfeggxddaddvv_1022221'
p1976
(lp1977
(I6
I0
tp1978
a(F0.24794779246738302
F-0.5551284894244776
tp1979
a(F5.243640696118437
F-2.8630042550579096
tp1980
asS'kLLLAPPkcdgfehhjijjhfhaqiphffj_2010222001'
p1981
(lp1982
(I0
I0
tp1983
a(F0.19875624121005547
F0.07282555941161535
tp1984
a(F4.635350408012096
F-1.9586080603499232
tp1985
asS'jLLwQLQbeefgehihixxhaahxxnn_102211100'
p1986
(lp1987
(I3
I0
tp1988
a(F0.5924530857714045
F0.5502769653707944
tp1989
a(F6.996426907133022
F3.108716329611638
tp1990
asS'kLLLLQPkbcefihhjijjtsuwjckuoul_2010222121'
p1991
(lp1992
(I3
I3
tp1993
a(F0.0748793377698427
F-0.16234334708228515
tp1994
a(F8.703187627457584
F2.7959938663891952
tp1995
asS'jLMzMzQbcdefghiiihhqqqqhhvc_122002211'
p1996
(lp1997
(I7
I1
tp1998
a(F0.28422881860399146
F0.35331356716626694
tp1999
a(F5.762190517226793
F0.6069009204424943
tp2000
asS'gLMzQbcdefffhhhqxdu_122100'
p2001
(lp2002
(I2
I0
tp2003
a(F0.5000000000000002
F5.692750766031715e-16
tp2004
a(F4.3352061840264255
F-0.8775623461737625
tp2005
asS'iLLLQMcbdeggfghhenaipnnhw_01120221'
p2006
(lp2007
(I1
I0
tp2008
a(F-0.6268092382678743
F0.6653972291809797
tp2009
a(F8.272153445282676
F-1.7034949926266902
tp2010
asS'jLLLPPQbdehfighiixnihndwgau_102220110'
p2011
(lp2012
(I2
I2
tp2013
a(F-0.0154191530285096
F-0.11966170978902466
tp2014
a(F8.950695395050415
F-2.539766180129864
tp2015
asS'jLMzMzQbcdefghiiihhhhxxqxvn_122110021'
p2016
(lp2017
(I5
I2
tp2018
a(F0.9833912731930435
F0.519537970424443
tp2019
a(F6.006441225065358
F-0.5974440805906576
tp2020
asS'jLMzMzQbcdefghiiihhhqxqqhvn_122100221'
p2021
(lp2022
(I7
I0
tp2023
a(F0.29016228371363123
F0.19126964920021336
tp2024
a(F5.095047566135492
F-2.688377963150189
tp2025
asS'fLMPcbcdeeehhhhkn_12211'
p2026
(lp2027
(I4
I3
tp2028
a(F0.3726849130132185
F0.36443302335804395
tp2029
a(F4.2969934327477155
F-2.781670764188845
tp2030
asS'iLMzMPcbcdefghhhhhhhhxqlm_12211200'
p2031
(lp2032
(I4
I3
tp2033
a(F0.4701367332397882
F0.44983339697060426
tp2034
a(F8.432759985553057
F-3.0500611485082993
tp2035
asS'hLLAMkbeddfggghhnkahha_2111221'
p2036
(lp2037
(I0
I3
tp2038
a(F0.9830047765462643
F-0.005354798677914685
tp2039
a(F4.714738597508024
F2.222787391384035
tp2040
asS'iLMzMPcbcdefghhhhhhqxxqep_12210012'
p2041
(lp2042
(I7
I0
tp2043
a(F0.3116770958106388
F0.2593755083563858
tp2044
a(F3.8496716266600677
F-2.488671866342546
tp2045
asS'kLLLAAMkcdffgfhijjjqgdatgqhqdm_2101221022'
p2046
(lp2047
(I5
I2
tp2048
a(F0.0347279692159627
F0.18197366233897191
tp2049
a(F6.961440970574432
F3.068155028254508
tp2050
asS'jLMzMzQbcdefghiiihhhhxxqqfo_122110022'
p2051
(lp2052
(I4
I3
tp2053
a(F0.3786346555321267
F0.41203419652005724
tp2054
a(F8.018511698682268
F-2.8312410912568926
tp2055
asS'hLLAMkcdcefggghfrtxhum_2010211'
p2056
(lp2057
(I1
I2
tp2058
a(F0.7557594885763507
F0.7095456612582288
tp2059
a(F5.095988937088922
F-1.2325396130523731
tp2060
asS'jLMzMzQbcdefghiiihhhqxqqhjo_122100221'
p2061
(lp2062
(I7
I0
tp2063
a(F0.397092440508696
F0.10046759962199749
tp2064
a(F5.1635440552019825
F2.6275146729340624
tp2065
asS'jLLLQLQbeefeghiiihhhhhhaacv_011102211'
p2066
(lp2067
(I3
I3
tp2068
a(F0.7168786567615937
F0.43749070703046244
tp2069
a(F7.394001749092863
F1.536414552930089
tp2070
asS'jLLvQMQcdfeghihiiqraqsjqkaa_022210002'
p2071
(lp2072
(I8
I1
tp2073
a(F0.4831493655183502
F-0.6281813703882688
tp2074
a(F5.576243790278882
F-3.0107268882476688
tp2075
asS'iLvLQQccegfhfghhhthhmssrr_20102110'
p2076
(lp2077
(I1
I3
tp2078
a(F0.1945352954375107
F0.3573299875703463
tp2079
a(F3.614177933591417
F-1.6375058404454
tp2080
asS'gLLPQbefefefhhxhqhh_211120'
p2081
(lp2082
(I2
I3
tp2083
a(F0.01443375672974378
F0.36639536313956944
tp2084
a(F8.028867513459486
F-1.025580099404567e-15
tp2085
asS'kLLAvAQkcecdgijhjijhqrwwaqqjns_2010222001'
p2086
(lp2087
(I2
I3
tp2088
a(F0.4982112957522849
F-0.06220923613647852
tp2089
a(F8.844183714948302
F0.1410619369517951
tp2090
asS'jvLLQMQegffghhiiiguuuuaaggb_210010022'
p2091
(lp2092
(I1
I2
tp2093
a(F0.6269793700465315
F0.43037624882282194
tp2094
a(F10.349741925101005
F2.974144660637584
tp2095
asS'jLAvPAQbcbhgffihihhwaaasqwj_211220012'
p2096
(lp2097
(I6
I1
tp2098
a(F1.42893933244334
F1.0255539126697646
tp2099
a(F7.477975021738744
F0.8157025075262615
tp2100
asS'kLALLPMkcbbeghhijjjqqjnanbpdwb_0220012120'
p2101
(lp2102
(I1
I3
tp2103
a(F0.33016559208855695
F0.0847049093189718
tp2104
a(F7.422029545453288
F-0.4930640411217617
tp2105
asS'jLLvMQQcdfigihghihsasrjggnw_122201110'
p2106
(lp2107
(I2
I1
tp2108
a(F0.6393633155447789
F-0.2263530378283374
tp2109
a(F4.70761440970615
F3.0032732418747567
tp2110
asS'iLLLQPcbeefeghhhhhhhhhqaq_12001110'
p2111
(lp2112
(I4
I1
tp2113
a(F0.5597380571714956
F1.1149143022832468
tp2114
a(F10.109127322822234
F-0.7560527946545262
tp2115
asS'kLLLLQMkbefgiihijjjxxqxcvjoqxh_1022101112'
p2116
(lp2117
(I3
I1
tp2118
a(F0.8977987255912114
F0.6818168007801666
tp2119
a(F11.721501246696402
F0.53619072969215
tp2120
asS'jLLLMMQcdefghhiiihftagofdua_201022020'
p2121
(lp2122
(I7
I0
tp2123
a(F0.2628064489587241
F0.4429668347711063
tp2124
a(F3.604746564610981
F-2.487438625418944
tp2125
asS'gLPLQbcdfeffhrraarw_120011'
p2126
(lp2127
(I3
I2
tp2128
a(F0.46605603448275607
F-0.02993576375665597
tp2129
a(F3.3405224721640727
F-0.8480620789814797
tp2130
asS'jLLLAPQcdgfehiihihshahxqqxf_122201122'
p2131
(lp2132
(I2
I1
tp2133
a(F0.5035372690876562
F-0.1441045025438132
tp2134
a(F4.134184936182079
F-2.9416765886841745
tp2135
asS'jLMzMzQbcdefghiiihhqqxxhhsj_122001122'
p2136
(lp2137
(I7
I0
tp2138
a(F0.4339067946377754
F0.03963882454540468
tp2139
a(F5.298409662882967
F-2.5192650021879
tp2140
asS'jLLLMMQcdefghihiihftagohwxl_201022021'
p2141
(lp2142
(I3
I1
tp2143
a(F0.4706373856203986
F0.7530370956319845
tp2144
a(F6.709815903750763
F-0.9271079960129173
tp2145
asS'gLMzQbcdefffhhhhxxa_122110'
p2146
(lp2147
(I3
I2
tp2148
a(F0.732875654473391
F0.29502175978192446
tp2149
a(F6.3120093264956365
F-0.08701721480603818
tp2150
asS'kLLAwAPkccedfghjiijlnhcqeeaasw_1200112201'
p2151
(lp2152
(I0
I1
tp2153
a(F0.6674231275278695
F0.48745546573607357
tp2154
a(F10.97586861577132
F-3.006517250775493
tp2155
asS'jLMzMzQbcdefghiiihhqqqqhhkn_122002211'
p2156
(lp2157
(I2
I0
tp2158
a(F0.5319108362272832
F0.05074301593704693
tp2159
a(F7.304287285574974
F-0.8932596385671318
tp2160
asS'iLMzMPcbcdefghhhhhqqqxhpi_12200211'
p2161
(lp2162
(I7
I1
tp2163
a(F0.29459657235641895
F0.23582457393435846
tp2164
a(F4.599613700921446
F0.7330251557094131
tp2165
asS'jLLLzQQcdghfiggiihfhxohwrum_201022211'
p2166
(lp2167
(I5
I2
tp2168
a(F0.7058216934020921
F0.027238118832641236
tp2169
a(F3.5135863780245185
F1.8521945016250718
tp2170
asS'eLMkbcdddhhhml_1221'
p2171
(lp2172
(I3
I2
tp2173
a(F0.4733231763462485
F0.19245834993684757
tp2174
a(F5.027127966172648
F0.3485253852607523
tp2175
asS'jLMzMzQbcdefghiiihhhqxqxhbg_122100211'
p2176
(lp2177
(I2
I0
tp2178
a(F0.5040619223964933
F0.01171229077239995
tp2179
a(F7.207117217484515
F-0.8269789014884474
tp2180
asS'kLLAvMQkacdegijhijjjkaajoxfnxa_2002100002'
p2181
(lp2182
(I2
I2
tp2183
a(F0.43524045806861783
F0.3701333981349855
tp2184
a(F15.633583066057648
F0.9000847963079315
tp2185
asS'hLLPMkccdfeggghwraahqx_2010221'
p2186
(lp2187
(I6
I0
tp2188
a(F0.6542789372206556
F0.6300895724040626
tp2189
a(F5.935529466352064
F1.5707963267948954
tp2190
asS'ivLLQQcceefghghhbkgqqhcvc_21111000'
p2191
(lp2192
(I6
I0
tp2193
a(F-0.011550791933062715
F1.559267585609478
tp2194
a(F11.099386142985994
F-1.9374720710300304
tp2195
asS'hLLLQkcegfeegghqhaxhbg_1222011'
p2196
(lp2197
(I3
I0
tp2198
a(F0.1454863318610701
F-0.17936166142591406
tp2199
a(F4.758214582683828
F-2.0809996729779923
tp2200
asS'jLLvQPQbegfhigihihhhelhktfu_120011222'
p2201
(lp2202
(I4
I0
tp2203
a(F0.3181524558880302
F0.3690489734047683
tp2204
a(F4.777573970686533
F0.5075393571518999
tp2205
asS'kLAvLAQkbcbgffjjiijhhwaashiwci_2112200112'
p2206
(lp2207
(I9
I1
tp2208
a(F1.111676745782232
F0.6954829216189915
tp2209
a(F8.984388075302865
F0.0558959004221945
tp2210
asS'jLMzMzQbcdefghiiihhqqxxhhfo_122001122'
p2211
(lp2212
(I2
I0
tp2213
a(F0.4986423226781547
F0.059950075310394084
tp2214
a(F9.542530007911534
F-0.6755694594199676
tp2215
asS'gLLAQacdefefnsaaxjk_100120'
p2216
(lp2217
(I3
I0
tp2218
a(F3.925174522515433
F-1.0082703831129096
tp2219
a(F23.02182061568735
F-2.221834402053049
tp2220
asS'fLMPcbcdeeehhhqrb_12210'
p2221
(lp2222
(I2
I0
tp2223
a(F0.4913662540960897
F-0.058672013582688476
tp2224
a(F4.373983756350539
F-0.727363156026471
tp2225
asS'hLMzMkbcdefggghhhhxxfo_1221100'
p2226
(lp2227
(I4
I3
tp2228
a(F0.47026138825653646
F0.4294164562208989
tp2229
a(F7.9282541719722
F-3.044068738387076
tp2230
asS'hLALPkbcbegffghhwsaasw_2112201'
p2231
(lp2232
(I0
I1
tp2233
a(F0.8581970970735512
F1.180678976329086
tp2234
a(F6.132263452966532
F-0.3040329416358895
tp2235
asS'gLMzQbcdefffhhhqxlm_122100'
p2236
(lp2237
(I5
I2
tp2238
a(F0.5000000000000003
F6.568558576190452e-16
tp2239
a(F3.3859020093878973
F-0.8775623461737643
tp2240
asS'iLMzMPcbcdefghhhhhqqqqhxq_12200221'
p2241
(lp2242
(I7
I1
tp2243
a(F0.4999999999999992
F1.4432899320127049e-15
tp2244
a(F3.81837661840736
F0.7853981633974474
tp2245
asS'jLAPzMPbcbeefghiihhwjsahhhr_211221212'
p2246
(lp2247
(I4
I3
tp2248
a(F1.1480068291528496
F0.2960916369700091
tp2249
a(F3.855899086189563
F-1.1117740805004737
tp2250
asS'jLMzMzQbcdefghiiihhhqxqqhsf_122100221'
p2251
(lp2252
(I2
I0
tp2253
a(F0.4693274975187217
F0.03397521036573709
tp2254
a(F7.2096931273108
F-0.8560264496334271
tp2255
asS'jLLLAPQbedgfhihiixxnxxqhqhn_011102211'
p2256
(lp2257
(I7
I2
tp2258
a(F0.4825373760561654
F0.4429786837622905
tp2259
a(F6.161533921431063
F2.8695510685268246
tp2260
asS'iLLLMQccegfhhhgghqhaqfowr_20102222'
p2261
(lp2262
(I4
I1
tp2263
a(F0.41918636430810646
F0.1750284179213116
tp2264
a(F4.780092104869084
F-3.000925535860933
tp2265
asS'kLALPvQkbcbegfjjiijhhwsaaqrrjg_2112201222'
p2266
(lp2267
(I9
I3
tp2268
a(F0.36594232149771627
F1.67374029443146
tp2269
a(F7.098540624945743
F-0.1372622482345883
tp2270
asS'jLLMPLQbeddfgihhixxnwvcxxjk_211120021'
p2271
(lp2272
(I4
I3
tp2273
a(F0.2675034421802405
F0.042357258379893126
tp2274
a(F9.057064902461896
F-0.5039624300046678
tp2275
asS'iLwAPMcacedfgghhjsqqaasqj_20011002'
p2276
(lp2277
(I5
I0
tp2278
a(F0.15023802925421822
F0.14563992636221362
tp2279
a(F6.258022803132741
F-1.5093950120665538
tp2280
asS'jLMzMzQbcdefghiiihhhhhhqqvc_122112200'
p2281
(lp2282
(I6
I0
tp2283
a(F0.5031947451444692
F-0.07898856659013301
tp2284
a(F6.680324886065993
F-0.5349411876926637
tp2285
asS'eLMkbcdddhhqxh_1220'
p2286
(lp2287
(I2
I0
tp2288
a(F0.5000000000000003
F-3.3306690738754696e-16
tp2289
a(F3.8183766184073527
F-0.7853981633974474
tp2290
asS'jLLLAAQccgfghgiiilntpaxwxvc_120011100'
p2291
(lp2292
(I0
I1
tp2293
a(F0.28602213713199637
F0.8512517939155275
tp2294
a(F10.278046863067967
F-2.7748906955236308
tp2295
asS'kLLLLPQkbeggfjhijijhhquvacoxvx_1200112110'
p2296
(lp2297
(I6
I2
tp2298
a(F0.8539588727041365
F0.012665874108998025
tp2299
a(F7.618377685876251
F-2.193672277037307
tp2300
asS'eLAkaccddjsnak_2001'
p2301
(lp2302
(I2
I2
tp2303
a(F0.030650792576597464
F0.9407567343846156
tp2304
a(F7.61080175721008
F1.1780169691229194
tp2305
asS'jLAMLLQbcbdeghihixxnxxjaajk_011010021'
p2306
(lp2307
(I0
I3
tp2308
a(F-11.2382738126842
F-12.038985886426554
tp2309
a(F82.9294624523619
F2.798149469084874
tp2310
asS'iLLLPQcbcgefhghhtsdawswof_20102221'
p2311
(lp2312
(I1
I1
tp2313
a(F0.42192544385409675
F-0.015674968096592922
tp2314
a(F9.481982388995956
F2.3989891204098703
tp2315
asS'iLLLQPccdgfefhhhhfhaqoqte_20102220'
p2316
(lp2317
(I3
I0
tp2318
a(F0.01040208616773858
F1.2067417763799542
tp2319
a(F8.840674161732037
F-1.6389047160185122
tp2320
asS'jvLALQQcdfghihiihffaqxxjjoo_022220011'
p2321
(lp2322
(I4
I0
tp2323
a(F0.8555503925868989
F-0.1782107663683836
tp2324
a(F6.769295638795564
F2.6789212743726867
tp2325
asS'hLLzQkcdefggfghspadgsg_1222011'
p2326
(lp2327
(I3
I2
tp2328
a(F0.36940224636566676
F0.11818458453711947
tp2329
a(F7.610384944513426
F-0.21090945738515832
tp2330
asS'jLMzMzQbcdefghiiihhhqxqxhrw_122100211'
p2331
(lp2332
(I7
I1
tp2333
a(F0.5357863959497253
F0.5457489576291483
tp2334
a(F5.667420932801581
F1.6474501264600165
tp2335
asS'jLLvAQQbeghfighiihhhhnknncc_120011221'
p2336
(lp2337
(I2
I3
tp2338
a(F0.7273706896551716
F0.6015663002528328
tp2339
a(F9.77148422622444
F2.780225529683084
tp2340
asS'jLLLMAQcegfhhhiiihqhaqjshha_122201102'
p2341
(lp2342
(I3
I0
tp2343
a(F0.04971789060029693
F-0.17352309096290314
tp2344
a(F6.646637945719157
F-2.1663162274274104
tp2345
asS'fLMPcbcdeeehhhqwg_12210'
p2346
(lp2347
(I3
I2
tp2348
a(F0.6396996356771786
F0.37501128450570276
tp2349
a(F5.743202930993232
F-0.07828680836980353
tp2350
asS'kLLAPzMkbeddfghijjjhhnkbgqqqqa_2111222002'
p2351
(lp2352
(I6
I2
tp2353
a(F0.8237611848495577
F-0.42610633521282565
tp2354
a(F8.642170474283128
F2.5241054536687875
tp2355
asS'jLMzMzQbcdefghiiihhhhhhqqjs_122112200'
p2356
(lp2357
(I6
I0
tp2358
a(F0.48122294264325866
F-0.09551655779438936
tp2359
a(F4.8728114210800575
F-0.7788408819451448
tp2360
asS'jLLLzQQcdghghhiiihfhxfnvipa_201022210'
p2361
(lp2362
(I8
I1
tp2363
a(F0.3782567132114222
F0.032247602637922326
tp2364
a(F6.1168204399823844
F-1.1222787447577025
tp2365
asS'iLMzMPcbcdefghhhhhqqqxhet_12200211'
p2366
(lp2367
(I2
I0
tp2368
a(F0.5722010659528513
F0.07249459186877187
tp2369
a(F8.237937427399451
F-0.7330251557094142
tp2370
asS'jLLAMzQbeddfghiiihhcvahhhxq_120011221'
p2371
(lp2372
(I6
I2
tp2373
a(F0.6014667856725797
F-0.044171517103496004
tp2374
a(F7.161749264625715
F-2.6769932364275584
tp2375
asS'kLLLAAAkbegfeghhijjxxmparrvpxk_1022101110'
p2376
(lp2377
(I7
I1
tp2378
a(F0.5827498074169515
F-0.6450359894333781
tp2379
a(F17.114046653519896
F-3.0099570406478655
tp2380
asS'jLMzMzQbcdefghiiihhhhhhhqrb_122112210'
p2381
(lp2382
(I6
I0
tp2383
a(F0.5070729047663993
F-0.17668102825295592
tp2384
a(F4.994816840080523
F-0.5996479377218032
tp2385
asS'ivLLQQccefghhfghbvaautdsg_12020011'
p2386
(lp2387
(I7
I2
tp2388
a(F0.4679752513187598
F0.004993992450185581
tp2389
a(F6.681237542375244
F2.7832158657194883
tp2390
asS'jLAvPAQbcbgfhfihixxnaaajqks_011002210'
p2391
(lp2392
(I4
I1
tp2393
a(F1.149071218404693
F0.3636945466457588
tp2394
a(F6.3273123278205805
F1.0579970733325206
tp2395
asS'gvLQQcdefeffwcgmktq_102021'
p2396
(lp2397
(I0
I2
tp2398
a(F0.34004331766831886
F0.11365038768909441
tp2399
a(F5.098076211353315
F0.3225512784631633
tp2400
asS'jLPvLQQbcdgfhiihixnngnbhqnx_102211110'
p2401
(lp2402
(I4
I2
tp2403
a(F0.2587831771420297
F0.32551501729341653
tp2404
a(F6.261872558513112
F1.7609219301413648
tp2405
asS'jLLLQzQcegfdehiiihqhajjhhrw_201022211'
p2406
(lp2407
(I4
I0
tp2408
a(F0.6213690699847317
F-0.21556871844286873
tp2409
a(F5.447537710151694
F0.07451795452793686
tp2410
asS'jLLLAPQbcfeggihiitshhxfpiks_201022200'
p2411
(lp2412
(I8
I0
tp2413
a(F1.5841238984862365
F-0.15936872206837288
tp2414
a(F12.798987429227708
F1.221847026906727
tp2415
asS'jLLLQzQcegfeehiiihqhaqahhrw_201022211'
p2416
(lp2417
(I0
I3
tp2418
a(F0.43873209268365054
F-0.21638785879645536
tp2419
a(F5.604553296647439
F-2.2749189938145418
tp2420
asS'hLLPPkaceeffggjkqsbjqs_2002120'
p2421
(lp2422
(I2
I2
tp2423
a(F0.619405773292332
F0.5656955253706746
tp2424
a(F6.6557925385906405
F0.9392777681187524
tp2425
asS'kLLLAAMkccgfghgijjjlntpaxwxxxa_1200111001'
p2426
(lp2427
(I0
I1
tp2428
a(F0.3081057875913481
F0.883119539549013
tp2429
a(F10.345764877368769
F-2.783385820683769
tp2430
asS'jLLALMQcecdhggiiihqrwqwrafo_201022200'
p2431
(lp2432
(I1
I3
tp2433
a(F0.18893985475040853
F-0.21172247616374282
tp2434
a(F14.137470541198542
F-0.6562520484173704
tp2435
asS'iLLAPMcacdefgghhjkaqhxkaj_20021002'
p2436
(lp2437
(I4
I0
tp2438
a(F-0.05657342121105167
F0.4684342197962266
tp2439
a(F7.035160393965944
F-1.648504378085744
tp2440
asS'iLMzMPcbcdefghhhhhhhhhqqa_12211220'
p2441
(lp2442
(I3
I2
tp2443
a(F0.5876601185846624
F0.40553725616898206
tp2444
a(F5.79538588531005
F0.294357283264894
tp2445
asS'jLLvQPQbeghfighiihhaaahkkpp_120011112'
p2446
(lp2447
(I5
I2
tp2448
a(F1.7534442427722963
F2.3437800301863216
tp2449
a(F12.955175817503878
F-1.744547984190397
tp2450
asS'hLMzMkbcdefggghhqqqqbg_1220022'
p2451
(lp2452
(I2
I0
tp2453
a(F0.5422280383641813
F0.06687818014289117
tp2454
a(F5.6632119751018966
F-0.9193059882581176
tp2455
asS'jLvLAQQbhgfghihiihqxtgkrkgc_120000121'
p2456
(lp2457
(I3
I2
tp2458
a(F0.5779217190368569
F0.04622232591710443
tp2459
a(F5.554902955336882
F-0.6019642208661622
tp2460
asS'jLLPLAQbcfffhgihilohmgooxrn_022110021'
p2461
(lp2462
(I5
I1
tp2463
a(F0.5976270868752063
F-0.26357754556274526
tp2464
a(F6.516330463948861
F1.9983918819467248
tp2465
asS'jLvLQAQcghfehgiiihuphagkhex_201021102'
p2466
(lp2467
(I8
I2
tp2468
a(F0.29831281827139666
F-0.005793270603046015
tp2469
a(F8.27277282707084
F0.5797566717943323
tp2470
asS'jLMzMzQbcdefghiiihhhhxxxxbg_122110011'
p2471
(lp2472
(I4
I3
tp2473
a(F0.8019451104869909
F0.3287568992783208
tp2474
a(F11.378349538067534
F2.7232200400440476
tp2475
asS'kLLLMAMkbefgghhijjjxxqahnkqhsj_1022101122'
p2476
(lp2477
(I0
I2
tp2478
a(F0.911865469843005
F0.051113922054051526
tp2479
a(F5.90797429718212
F0.26037277569720074
tp2480
asS'jLMzMzQbcdefghiiihhhhhxqqwg_122112002'
p2481
(lp2482
(I4
I3
tp2483
a(F0.4155358678432684
F0.4344460969215575
tp2484
a(F8.610288333024654
F-2.9251878125109396
tp2485
asS'iLMzMPcbcdefghhhhhhqxqqdm_12210022'
p2486
(lp2487
(I2
I0
tp2488
a(F0.4396856793030567
F-0.05897621220230741
tp2489
a(F6.448879151217908
F-0.7096768118286708
tp2490
asS'kLLLLPQkbdefhijhjijhrugvvqkxrp_1200012111'
p2491
(lp2492
(I3
I3
tp2493
a(F0.4517283256513549
F0.005802971306268438
tp2494
a(F5.9373054033189065
F-0.9250697247513454
tp2495
asS'jLLvMQQbegfhihihixxxxcvkkkk_011102200'
p2496
(lp2497
(I5
I2
tp2498
a(F0.09571322730992002
F0.38950460985295987
tp2499
a(F7.538543495376333
F-3.112348019200196
tp2500
as.