(dp1
S'iLLLMQccdefghghhhftagorfw_20102202'
p2
(lp3
c__builtin__
complex
p4
(F0.084598354543486368
F0.39772973753874791
tRp5
ag4
(F2.4105679874104067
F3.0056434757907771
tRp6
ag4
(F0.91894037767756731
F0.39926726922714395
tRp7
ag4
(F4.1289142465595816
F3.1802886650937561
tRp8
ag4
(F-0.12795898428002181
F0.27265547616469699
tRp9
ag4
(F-0.15200974081077809
F0.11708522551350595
tRp10
ag4
(F4.1289142465595825
F3.1802886650937592
tRp11
ag4
(F-0.15200974081077828
F0.11708522551350589
tRp12
asS'iLwAPMcacedfgghhjsqqaasqj_20011002'
p13
(lp14
g4
(F0.42135094693081232
F0.65257576325237177
tRp15
ag4
(F0.30169587363195305
F1.0815125765499611
tRp16
ag4
(F0.30169587363195455
F1.0815125765499609
tRp17
ag4
(F-0.23931014659771571
F0.85787362659517874
tRp18
ag4
(F-0.23931014659771688
F0.85787362659517841
tRp19
ag4
(F0.30169587363195277
F1.0815125765499618
tRp20
ag4
(F0.30169587363195527
F1.0815125765499616
tRp21
ag4
(F0.42135094693081204
F0.65257576325237132
tRp22
asS'hLvMQkbfeefgggdauaaprf_2101022'
p23
(lp24
g4
(F0.23410694206685126
F0.60647440100293293
tRp25
ag4
(F0.80248360157239707
F0.63544871772526013
tRp26
ag4
(F1.752495893093621
F1.5898725217227914
tRp27
ag4
(F0.80248360157239784
F0.6354487177252609
tRp28
ag4
(F1.7524958930936214
F1.5898725217227876
tRp29
ag4
(F0.23410694206685201
F0.60647440100293237
tRp30
ag4
(F-0.31613460017407918
F0.38046329952634189
tRp31
asS'iLLvQQcbeghfhhgghhaaarwrw_12001111'
p32
(lp33
g4
(F0.9789706182161475
F1.2252941296249091
tRp34
ag4
(F-0.37348176425860596
F0.70138506592917549
tRp35
ag4
(F0.40137221348938523
F0.48166979888852146
tRp36
ag4
(F0.40137221348938523
F0.48166979888852146
tRp37
ag4
(F0.57748306001305716
F0.29489870536350099
tRp38
ag4
(F0.97897061821614706
F1.22529412962491
tRp39
ag4
(F0.97897061821614684
F1.22529412962491
tRp40
ag4
(F0.97897061821614617
F1.2252941296249107
tRp41
asS'hLLLQkcdffggfgqgdatkgc_2101221'
p42
(lp43
g4
(F0.73409456334547707
F0.54914415177463805
tRp44
ag4
(F-1.1158760884400984
F1.7035805756360225
tRp45
ag4
(F0.26555196734705477
F0.60218199721272136
tRp46
ag4
(F-0.77447371994623915
F1.563811371476671
tRp47
ag4
(F0.7340945633454764
F0.54914415177463782
tRp48
ag4
(F1.2543164107710163
F0.51351373826403657
tRp49
ag4
(F0.38691565979080927
F1.3902678113640772
tRp50
asS'iLLLPQccdghhfhgghfhxjoowr_20102221'
p51
(lp52
g4
(F0.54338757676221672
F0.52506428463391697
tRp53
ag4
(F0.61153585109547237
F0.72410287760845127
tRp54
ag4
(F-0.70071619606360436
F1.3717534385543544
tRp55
ag4
(F0.13177341047960159
F0.83540495979099683
tRp56
ag4
(F0.59806799710487835
F0.5754591913035908
tRp57
ag4
(F0.54338757676221672
F0.52506428463391697
tRp58
ag4
(F1.295323066947645
F0.57813767520378223
tRp59
ag4
(F-0.18423002029989127
F1.1679645547669064
tRp60
asS'iLMzMPcbcdefghhhhhhqxqqei_12210022'
p61
(lp62
g4
(F0.65597926240137061
F0.43670824982352013
tRp63
ag4
(F-0.22886142231253273
F0.65385329624605837
tRp64
ag4
(F0.50000000000000011
F0.2430316097996861
tRp65
ag4
(F0.99468910259463672
F0.86321621215986799
tRp66
ag4
(F0.34402073759862928
F0.43670824982352002
tRp67
ag4
(F0.62741478271655959
F0.77868523193183248
tRp68
ag4
(F1.2288614223125331
F0.65385329624605837
tRp69
ag4
(F0.57345702495519058
F0.49766042437485103
tRp70
asS'iLMzMPcbcdefghhhhhqqqxhet_12200211'
p71
(lp72
g4
(F0.53213689538483744
F0.46270002278141875
tRp73
ag4
(F0.49999999999999989
F0.4277700266990011
tRp74
ag4
(F0.4020093640039315
F0.67298045127997874
tRp75
ag4
(F0.46786310461516256
F0.4627000227814187
tRp76
ag4
(F0.60820159965899845
F0.8833918614411127
tRp77
ag4
(F0.59799063599606861
F0.67298045127997863
tRp78
ag4
(F0.57514518334407927
F0.90526150076332279
tRp79
ag4
(F0.39179840034100138
F0.88339186144111237
tRp80
asS'iLMzMPcbcdefghhhhhhhxxqqa_12211002'
p81
(lp82
g4
(F0.78096771155348155
F0.13341619572612323
tRp83
ag4
(F-0.22606927025874868
F0.34477057643374714
tRp84
ag4
(F-0.22606927025874873
F0.3447705764337472
tRp85
ag4
(F0.90944960057952118
F0.65653870691800809
tRp86
ag4
(F0.9094496005795214
F0.65653870691800864
tRp87
ag4
(F0.62951247644505171
F1.5006232118347
tRp88
ag4
(F0.62951247644505171
F1.5006232118347
tRp89
ag4
(F-0.23771729488309223
F0.56666722885397824
tRp90
asS'hLMzMkbcdefggghhqqxxbg_1220011'
p91
(lp92
g4
(F0.57412600589561558
F0.38265999731642591
tRp93
ag4
(F0.37802070648442265
F0.62969258312744458
tRp94
ag4
(F0.37802070648442249
F0.62969258312744458
tRp95
ag4
(F0.64128830888273103
F0.9369304088149838
tRp96
ag4
(F0.64128830888273081
F0.9369304088149838
tRp97
ag4
(F0.55930955203927224
F0.82582155591855955
tRp98
ag4
(F0.55930955203927224
F0.82582155591855955
tRp99
asS'gLMzQbcdefffhxqqxxq_120021'
p100
(lp101
g4
(F0.49999999999999978
F0.86602540378443882
tRp102
ag4
(F0.5
F0.86602540378443793
tRp103
ag4
(F0.49999999999999967
F0.8660254037844386
tRp104
ag4
(F0.49999999999999989
F0.86602540378443804
tRp105
ag4
(F0.50000000000000089
F0.86602540378443948
tRp106
ag4
(F0.50000000000000067
F0.8660254037844386
tRp107
asS'gLMzQbcdefffhhhqxpe_122100'
p108
(lp109
g4
(F0.68491883696600819
F0.27099164196758718
tRp110
ag4
(F-0.26240619185889186
F0.49947746842136881
tRp111
ag4
(F0.35480893835910193
F0.53515118173198839
tRp112
ag4
(F0.91821454007584224
F0.76160942923691144
tRp113
ag4
(F0.69625299494884041
F1.0920268144275371
tRp114
ag4
(F0.6962529949488403
F1.0920268144275374
tRp115
asS'hLLAPkcecdfggghqrwffwr_2010222'
p116
(lp117
g4
(F0.15826661667412081
F0.63349185195903401
tRp118
ag4
(F1.0517979402474056
F1.6931445736109088
tRp119
ag4
(F0.75843655981577973
F0.57080233526288038
tRp120
ag4
(F2.0698496412316896
F1.1030798061703024
tRp121
ag4
(F-0.018051700984284508
F0.59006476744060921
tRp122
ag4
(F0.15826661667412104
F0.63349185195903246
tRp123
ag4
(F0.15826661667412115
F0.63349185195903235
tRp124
asS'iLMzMPcbcdefghhhhhhqxqxxq_12210021'
p125
(lp126
g4
(F0.62620800743736649
F0.39985836989710055
tRp127
ag4
(F-0.13438715068039364
F0.72435068142856252
tRp128
ag4
(F0.49691865556420656
F0.33693209385909706
tRp129
ag4
(F1.3722368527376345
F0.91903752976973463
tRp130
ag4
(F0.45075108450330753
F0.4877391842833555
tRp131
ag4
(F0.45075108450330753
F0.4877391842833555
tRp132
ag4
(F0.67336797890700806
F0.7466187525816641
tRp133
ag4
(F0.49182085675697318
F1.1242090513256628
tRp134
asS'iLMzMPcbcdefghhhhhhqxxqti_12210012'
p135
(lp136
g4
(F0.72715486863806467
F0.22844212345723056
tRp137
ag4
(F-0.25168668052563303
F0.3932284242804554
tRp138
ag4
(F0.20372326785245812
F0.56066772800511677
tRp139
ag4
(F0.83959572798244442
F0.59116913787140168
tRp140
ag4
(F0.42750477543925658
F1.5755667000232576
tRp141
ag4
(F0.42750477543925558
F1.5755667000232585
tRp142
ag4
(F0.72715486863806489
F0.22844212345723069
tRp143
ag4
(F-0.25168668052563259
F0.39322842428045546
tRp144
asS'iLLAMPcbeddfghhhhhnkahhbg_21112211'
p145
(lp146
g4
(F1.3133169635947233
F0.30899838891576831
tRp147
ag4
(F0.83446535176316972
F3.0999463926229747
tRp148
ag4
(F-0.61797557271217385
F1.5956743597190555
tRp149
ag4
(F-0.61797557271217463
F1.5956743597190564
tRp150
ag4
(F0.85069696823988628
F0.18251462013616998
tRp151
ag4
(F1.3133169635947233
F0.30899838891576814
tRp152
ag4
(F2.6851623200030543
F3.2824610127591436
tRp153
ag4
(F0.83446535176316727
F3.0999463926229756
tRp154
asS'iLLLAQcbegfeghhhxxmparrjv_10221011'
p155
(lp156
g4
(F0.83097777057582478
F0.98561223914908924
tRp157
ag4
(F0.50000000000000022
F0.42155410493544304
tRp158
ag4
(F0.64458427322415479
F0.76453326592901605
tRp159
ag4
(F-0.16902222942417652
F0.98561223914908902
tRp160
ag4
(F0.83097777057582345
F0.98561223914908835
tRp161
ag4
(F0.49999999999999944
F1.0755478842544219
tRp162
ag4
(F0.500000000000001
F1.0755478842544242
tRp163
ag4
(F0.64458427322415468
F0.7645332659290166
tRp164
asS'iLLLMQccegfhegghhqhaqjwrj_20102222'
p165
(lp166
g4
(F0.23434945163198234
F0.39550447780803188
tRp167
ag4
(F0.89114404361724886
F1.8713826422013109
tRp168
ag4
(F-0.44950037556444367
F0.83007147525975988
tRp169
ag4
(F0.89114404361724964
F1.8713826422013107
tRp170
ag4
(F0.23218401126292376
F0.26421910403139398
tRp171
ag4
(F0.23434945163198198
F0.39550447780803188
tRp172
ag4
(F1.5044505573110742
F0.93154542479971558
tRp173
ag4
(F0.2321840112629236
F0.26421910403139387
tRp174
asS'iLMzMPcbcdefghhhhhhqxxqep_12210012'
p175
(lp176
g4
(F0.72715486863806489
F0.22844212345723058
tRp177
ag4
(F-0.25168668052563292
F0.39322842428045529
tRp178
ag4
(F0.20372326785245778
F0.56066772800511655
tRp179
ag4
(F0.83959572798244486
F0.59116913787140124
tRp180
ag4
(F0.4275047754392568
F1.5755667000232574
tRp181
ag4
(F0.42750477543925652
F1.5755667000232574
tRp182
ag4
(F0.72715486863806478
F0.22844212345723044
tRp183
ag4
(F-0.25168668052563303
F0.39322842428045501
tRp184
asS'hLLLQkbdeggfgfenaipnnr_0112022'
p185
(lp186
g4
(F0.1929129294163788
F0.69163614029813958
tRp187
ag4
(F0.62583023931387127
F1.3414825531920063
tRp188
ag4
(F0.22102471222902242
F1.5829959326380842
tRp189
ag4
(F1.136621692238484
F0.56237343557103525
tRp190
ag4
(F0.25025882284753398
F0.50856388500852434
tRp191
ag4
(F1.1514402792432723
F0.6874900506983932
tRp192
ag4
(F1.293221645118199
F0.34969715459092732
tRp193
asS'iLMzMPcbcdefghhhhhhhxxxxa_12211001'
p194
(lp195
g4
(F0.69519410160110362
F0.24391866164910353
tRp196
ag4
(F-2.3899999999999999e-16
F0.6248105338438269
tRp197
ag4
(F-9.9999999999999998e-17
F0.62481053384382701
tRp198
ag4
(F1.7807764064044156
F0.62481053384382756
tRp199
ag4
(F1.7807764064044156
F0.62481053384382756
tRp200
ag4
(F0.28077640640441487
F0.44937847746753262
tRp201
ag4
(F0.28077640640441476
F0.44937847746753279
tRp202
ag4
(F-0.99999999999999933
F1.600485180440242
tRp203
asS'gvLQQcdeffefwwraara_201102'
p204
(lp205
g4
(F0.25000000000000039
F0.66143782776614812
tRp206
ag4
(F1.4999999999999993
F1.322875655532296
tRp207
ag4
(F0.75000000000000044
F0.66143782776614735
tRp208
ag4
(F0.75000000000000067
F0.66143782776614779
tRp209
ag4
(F1.5000000000000002
F1.3228756555322942
tRp210
ag4
(F0.25000000000000006
F0.66143782776614812
tRp211
asS'hLLLQkbeegefgghhxaxarw_1200111'
p212
(lp213
g4
(F0.83928675521416141
F1.2125814584143981
tRp214
ag4
(F-0.16071324478583865
F1.2125814584143988
tRp215
ag4
(F0.41194971781526069
F0.43035830931178415
tRp216
ag4
(F0.41194971781526069
F0.43035830931178415
tRp217
ag4
(F0.83928675521416118
F1.2125814584143992
tRp218
ag4
(F0.83928675521416107
F1.2125814584143983
tRp219
ag4
(F0.83928675521416052
F1.2125814584143988
tRp220
asS'gLMzQbcdefffhhhhxqh_122110'
p221
(lp222
g4
(F0.73439122427034742
F0.17892274919649129
tRp223
ag4
(F-0.17390519238996532
F0.51442612706834623
tRp224
ag4
(F-0.17390519238996541
F0.51442612706834612
tRp225
ag4
(F1.2948772561507296
F0.87227162546132875
tRp226
ag4
(F1.2948772561507289
F0.87227162546132875
tRp227
ag4
(F0.56048603188038182
F0.69334887626483754
tRp228
asS'ivvPQQcfghghfghfaxxxxaaaa_20000211'
p229
(lp230
g4
(F-3.8300000000000001e-16
F0.99999999999999989
tRp231
ag4
(F-1.61e-16
F1
tRp232
ag4
(F6.1000000000000005e-17
F0.99999999999999989
tRp233
ag4
(F6.1000000000000005e-17
F0.99999999999999989
tRp234
ag4
(F6.1000000000000005e-17
F1
tRp235
ag4
(F6.1000000000000005e-17
F1.0000000000000002
tRp236
ag4
(F-1.61e-16
F1
tRp237
ag4
(F-1.61e-16
F1
tRp238
asS'hLMzMkbcdefggghhhqxqkc_1221002'
p239
(lp240
g4
(F0.65180551783599128
F0.37009050024988893
tRp241
ag4
(F-0.25432642187471421
F0.59986925557246884
tRp242
ag4
(F0.49286106199527174
F0.34229826612220698
tRp243
ag4
(F0.96068865664056569
F0.83452341401128693
tRp244
ag4
(F0.48805697052848673
F0.53278426304267634
tRp245
ag4
(F0.67473226656656304
F0.86994289028118943
tRp246
ag4
(F0.54215021431562072
F0.63707699457961342
tRp247
asS'iLMzMPcbcdefghhhhhqqxxhti_12200112'
p248
(lp249
g4
(F0.60198226908655317
F0.35421277762450282
tRp250
ag4
(F0.3586548081518402
F0.61899149679511467
tRp251
ag4
(F0.25960612763949331
F0.68221189700958729
tRp252
ag4
(F0.64135921917303584
F1.0104086903092957
tRp253
ag4
(F0.51275895640436342
F1.2804075145479861
tRp254
ag4
(F0.5522070579531454
F0.70546094384781743
tRp255
ag4
(F0.60198226908655328
F0.35421277762450271
tRp256
ag4
(F0.35865480815184025
F0.61899149679511456
tRp257
asS'iLLALQccecdhghghhqrwqwqrq_20102220'
p258
(lp259
g4
(F0.10278471520029506
F0.66545695115281289
tRp260
ag4
(F0.87608588944209143
F2.1331684598630392
tRp261
ag4
(F0.71902147236052272
F0.53329211496575979
tRp262
ag4
(F2.1027847152002943
F0.66545695115281234
tRp263
ag4
(F0.19332529356044967
F0.36692787717755587
tRp264
ag4
(F0.1027847152002956
F0.66545695115281456
tRp265
ag4
(F0.10278471520029524
F0.66545695115281323
tRp266
ag4
(F0.87608588944209187
F2.1331684598630374
tRp267
asS'fLMPcbcdeeehhqqvc_12200'
p268
(lp269
g4
(F0.58247015942811198
F0.37416156391807198
tRp270
ag4
(F0.35955182406682018
F0.6372039234676925
tRp271
ag4
(F0.35955182406682018
F0.6372039234676925
tRp272
ag4
(F0.63215812398614735
F0.9951804384617039
tRp273
ag4
(F0.63215812398614735
F0.9951804384617039
tRp274
asS'iLMzMPcbcdefghhhhhhqxxqqx_12210012'
p275
(lp276
g4
(F0.67607319478843608
F0.27987059996951363
tRp277
ag4
(F-0.26273816944798678
F0.52272933139791788
tRp278
ag4
(F0.38152008741714422
F0.52383979616360954
tRp279
ag4
(F0.94147643877084841
F0.79741122669443587
tRp280
ag4
(F0.71256922891204644
F0.99885578755323223
tRp281
ag4
(F0.71256922891204655
F0.99885578755323223
tRp282
ag4
(F0.59358472280162056
F0.81206664512024718
tRp283
ag4
(F0.41333502534044941
F0.80259993136743168
tRp284
asS'eLMkbcdddhhhdu_1221'
p285
(lp286
g4
(F0.72715486863806478
F0.22844212345723061
tRp287
ag4
(F-0.25168668052563298
F0.39322842428045535
tRp288
ag4
(F0.20372326785245784
F0.56066772800511666
tRp289
ag4
(F0.83959572798244475
F0.59116913787140124
tRp290
asS'hLLLQkbeegefgghhhahabg_0111022'
p291
(lp292
g4
(F0.83928675521416218
F1.2125814584143992
tRp293
ag4
(F1.1074155328328579
F0.81045021293916431
tRp294
ag4
(F1.1074155328328588
F0.81045021293916397
tRp295
ag4
(F1.1074155328328588
F0.81045021293916397
tRp296
ag4
(F0.83928675521416141
F1.2125814584143979
tRp297
ag4
(F0.83928675521416118
F1.2125814584143988
tRp298
ag4
(F0.83928675521415974
F1.2125814584143986
tRp299
asS'iLLLMQcbdgfhgghhdwxxbrgbo_21010212'
p300
(lp301
g4
(F0.76068985340228357
F0.85787362659517841
tRp302
ag4
(F0.30169587363195394
F1.0815125765499614
tRp303
ag4
(F0.091020400166547707
F0.75522469492377531
tRp304
ag4
(F-0.15729810613837519
F1.3051515265047435
tRp305
ag4
(F0.09102040016654829
F0.75522469492377575
tRp306
ag4
(F0.76068985340228368
F0.85787362659517896
tRp307
ag4
(F-0.15729810613837636
F1.3051515265047435
tRp308
ag4
(F0.76068985340228401
F0.85787362659517741
tRp309
asS'iLLALQcbeddhgghhxxrwxofax_01110001'
p310
(lp311
g4
(F0.7543486338395029
F1.766906477103102
tRp312
ag4
(F1.1970140966384579
F0.39829097413653786
tRp313
ag4
(F0.5646955584771568
F0.49161786270408664
tRp314
ag4
(F0.56469555847715669
F0.49161786270408625
tRp315
ag4
(F-0.99779105012616243
F2.017171238608173
tRp316
ag4
(F1.0095699711499495
F1.1401735983456949
tRp317
ag4
(F1.0095699711499488
F1.140173598345696
tRp318
ag4
(F0.79562488208542859
F0.47870666612594071
tRp319
asS'iLLPwQcccdfehghhhggaahhbg_20102211'
p320
(lp321
g4
(F0.16272175831909202
F0.61050796208581626
tRp322
ag4
(F1.1955670593924661
F1.0026969500532263
tRp323
ag4
(F0.77976668564574403
F0.56857296231689447
tRp324
ag4
(F1.1955670593924681
F1.0026969500532266
tRp325
ag4
(F0.714828457022885
F0.45941347525769149
tRp326
ag4
(F0.714828457022885
F0.45941347525769122
tRp327
ag4
(F-0.02466625496178854
F1.5712699123701204
tRp328
ag4
(F-0.024666254961789244
F1.5712699123701208
tRp329
asS'cPcbbbiht_12'
p330
(lp331
g4
(F0.49999999999999944
F0.86602540378443782
tRp332
ag4
(F0.49999999999999944
F0.86602540378443782
tRp333
asS'eLAkbccddhhsqs_1220'
p334
(lp335
g4
(F0.45448979991672611
F0.37761234746188777
tRp336
ag4
(F0.57864905306918779
F0.65257576325237188
tRp337
ag4
(F0.5786490530691879
F0.65257576325237188
tRp338
ag4
(F0.23931014659771641
F0.85787362659517863
tRp339
asS'hLMzMkbcdefggghhhqxxrg_1221001'
p340
(lp341
g4
(F0.7104078529098159
F0.24099233540205375
tRp342
ag4
(F-0.2623713762303822
F0.42823544933572738
tRp343
ag4
(F0.26061433761308789
F0.56652774208298751
tRp344
ag4
(F0.85217548477236549
F0.65294889772142928
tRp345
ag4
(F0.58744432247770983
F1.4254765570774288
tRp346
ag4
(F0.58744432247771017
F1.4254765570774284
tRp347
ag4
(F0.65126158533566203
F0.31315645381530627
tRp348
asS'gLLMQaedfdffjxaxjkn_200211'
p349
(lp350
g4
(F0.19841847974812837
F0.69318149205213586
tRp351
ag4
(F-0.38166906885538898
F1.3333734587381536
tRp352
ag4
(F-0.38166906885538898
F1.3333734587381536
tRp353
ag4
(F0.19841847974812826
F0.69318149205213542
tRp354
ag4
(F-0.34116098068397022
F1.0555527216333476
tRp355
ag4
(F-0.34116098068397177
F1.0555527216333478
tRp356
asS'hLMzMkbcdefggghhhhhxwb_1221120'
p357
(lp358
g4
(F0.78853439024078564
F0.12995727743822219
tRp359
ag4
(F-0.23464034581869234
F0.20347939156970377
tRp360
ag4
(F-0.14861621127183847
F0.45682651504362504
tRp361
ag4
(F0.75170742508896882
F0.29896834117948839
tRp362
ag4
(F1.3540885124396762
F0.8597144046467865
tRp363
ag4
(F0.47366301264806593
F0.33417275574517541
tRp364
ag4
(F0.55859691966096925
F0.74349787466662476
tRp365
asS'fLLQcbecdeehhnkei_12001'
p366
(lp367
g4
(F0.85003913931423625
F1.0150084269384969
tRp368
ag4
(F-0.3634027699870514
F0.58779544276521078
tRp369
ag4
(F0.14244944903149559
F0.96416752023510399
tRp370
ag4
(F0.14244944903149634
F0.96416752023510466
tRp371
ag4
(F0.61849979881760331
F0.26665001061985472
tRp372
asS'hLLAPkbdeegfggdwdpqgof_2101012'
p373
(lp374
g4
(F0.97772057867745921
F0.81790796381936737
tRp375
ag4
(F0.033279202427488414
F1.2217249407398152
tRp376
ag4
(F0.39829283057087217
F0.50335555627662265
tRp377
ag4
(F0.28696409269024015
F1.5993708953807484
tRp378
ag4
(F0.39829283057087222
F0.50335555627662198
tRp379
ag4
(F0.2869640926902417
F1.5993708953807486
tRp380
ag4
(F0.69461710455043391
F0.37951370803839146
tRp381
asS'gLLAQcecdfefhqrwqjj_201022'
p382
(lp383
g4
(F-0.10355339059327372
F0.48915917173925777
tRp384
ag4
(F2.4142135623730949
F1.9566366869570317
tRp385
ag4
(F0.75735931288071445
F0.33570578220830682
tRp386
ag4
(F2.414213562373094
F1.9566366869570322
tRp387
ag4
(F0.085786437626904993
F0.40523272618718131
tRp388
ag4
(F0.085786437626905188
F0.40523272618718137
tRp389
asS'hLMzMkbcdefggghhhhhxrg_1221120'
p390
(lp391
g4
(F0.78853439024078564
F0.12995727743822219
tRp392
ag4
(F-0.23464034581869248
F0.20347939156970388
tRp393
ag4
(F-0.14861621127183852
F0.45682651504362481
tRp394
ag4
(F0.75170742508896859
F0.29896834117948851
tRp395
ag4
(F1.3540885124396758
F0.85971440464678572
tRp396
ag4
(F0.47366301264806643
F0.33417275574517541
tRp397
ag4
(F0.55859691966096914
F0.74349787466662465
tRp398
asS'hLLLQkbceegfggxclemskw_1022211'
p399
(lp400
g4
(F0.70770903670555874
F0.7477602788213088
tRp401
ag4
(F0.45345995285741614
F1.1600746631410046
tRp402
ag4
(F-0.29229096329444143
F0.74776027882130891
tRp403
ag4
(F0.50525542358667697
F0.73998243652007978
tRp404
ag4
(F0.50525542358667719
F0.73998243652008022
tRp405
ag4
(F0.50525542358667708
F0.73998243652008011
tRp406
ag4
(F0.50525542358667708
F0.73998243652008011
tRp407
asS'eLPkaccddjnkaj_2002'
p408
(lp409
g4
(F-0.19148788395311864
F0.5088517788327378
tRp410
ag4
(F0.64779887126104241
F1.7214332372471373
tRp411
ag4
(F0.64779887126104241
F1.7214332372471373
tRp412
ag4
(F-0.19148788395311891
F0.50885177883273813
tRp413
asS'iLLLQPcbeefeghhhhhhqhqxxa_21112001'
p414
(lp415
g4
(F1.0000000000000002
F1.0000000000000002
tRp416
ag4
(F0.99999999999999978
F1
tRp417
ag4
(F0.99999999999999956
F1
tRp418
ag4
(F0.99999999999999956
F1
tRp419
ag4
(F0.99999999999999978
F1
tRp420
ag4
(F1.0000000000000007
F0.99999999999999978
tRp421
ag4
(F0.99999999999999978
F1.0000000000000004
tRp422
ag4
(F1.0000000000000013
F0.99999999999999978
tRp423
asS'iLvLQQcbfhegghhghdhdagrwg_12000012'
p424
(lp425
g4
(F0.53860090245598347
F1.0876450950053334
tRp426
ag4
(F0.63436663527996096
F0.73835623723364574
tRp427
ag4
(F0.4075485409906292
F0.92349668667424734
tRp428
ag4
(F0.40754854099062926
F0.92349668667424678
tRp429
ag4
(F0.40754854099062954
F0.92349668667424656
tRp430
ag4
(F0.40754854099062965
F0.92349668667424667
tRp431
ag4
(F-0.11928340906070696
F0.65547260966204945
tRp432
ag4
(F0.26930045122799157
F0.54382254750266634
tRp433
asS'iLLLPQccdgehfghhhshhwwbcg_12220111'
p434
(lp435
g4
(F0.99999999999999978
F0.46583059998263598
tRp436
ag4
(F0.31833588103365834
F0.73166524375143094
tRp437
ag4
(F0.23233298554307943
F0.2493749718800565
tRp438
ag4
(F0.31833588103365817
F0.73166524375143105
tRp439
ag4
(F0.63078733175894675
F0.20490990254539673
tRp440
ag4
(F0.68166411896634216
F0.73166524375143116
tRp441
ag4
(F1
F0.46583059998263615
tRp442
ag4
(F0.68166411896634183
F0.73166524375143138
tRp443
asS'ivvPQQcfhgghfhgfaaahhahha_10000122'
p444
(lp445
g4
(F-1.61e-16
F1
tRp446
ag4
(F2.8300000000000001e-16
F1.0000000000000004
tRp447
ag4
(F-1.61e-16
F0.99999999999999978
tRp448
ag4
(F-3.8300000000000001e-16
F1.0000000000000004
tRp449
ag4
(F6.1000000000000005e-17
F0.99999999999999967
tRp450
ag4
(F-3.8300000000000001e-16
F1
tRp451
ag4
(F2.8300000000000001e-16
F0.99999999999999978
tRp452
ag4
(F6.1000000000000005e-17
F1
tRp453
asS'iLLLMQccdgfghhfhhrhagcrjb_02221001'
p454
(lp455
g4
(F0.32231366392661992
F0.32128864101694415
tRp456
ag4
(F0.86712207922056828
F0.55088833291616468
tRp457
ag4
(F0.77087083359327213
F0.43184051114965971
tRp458
ag4
(F0.86712207922056905
F0.55088833291616501
tRp459
ag4
(F-0.18490092966322746
F1.1663038092181333
tRp460
ag4
(F0.26031369321716225
F0.30540291284086202
tRp461
ag4
(F0.11075016073696371
F0.50345820541196762
tRp462
ag4
(F-0.18490092966322413
F1.1663038092181337
tRp463
asS'ivvPQQcfghghfhgfaddddaaaa_20000222'
p464
(lp465
g4
(F-0.25168668052563292
F0.39322842428045529
tRp466
ag4
(F2.1546596440773209
F1.8040088234804892
tRp467
ag4
(F0.42750477543925669
F1.5755667000232572
tRp468
ag4
(F0.42750477543925702
F1.5755667000232569
tRp469
ag4
(F2.1546596440773227
F1.8040088234804881
tRp470
ag4
(F-0.25168668052563281
F0.39322842428045535
tRp471
ag4
(F0.20372326785245759
F0.560667728005116
tRp472
ag4
(F0.20372326785245734
F0.56066772800511666
tRp473
asS'gLPLQbdcfeffhbbaabg_120011'
p474
(lp475
g4
(F0.49999999999999978
F1.3228756555322956
tRp476
ag4
(F0.75000000000000033
F0.6614378277661479
tRp477
ag4
(F0.37499999999999994
F0.33071891388307373
tRp478
ag4
(F0.37499999999999994
F0.33071891388307373
tRp479
ag4
(F0.49999999999999983
F1.3228756555322958
tRp480
ag4
(F0.49999999999999978
F1.3228756555322956
tRp481
asS'ivLLQQccefghhfghbvaautdsg_12020011'
p482
(lp483
g4
(F0.42884913068478908
F0.7623240210106077
tRp484
ag4
(F0.44548934360873976
F0.56777870602535097
tRp485
ag4
(F0.54188692933452998
F0.43629095871147366
tRp486
ag4
(F0.62947054167874072
F0.84016420217585963
tRp487
ag4
(F0.62947054167874006
F0.84016420217585974
tRp488
ag4
(F0.42884913068478925
F0.76232402101060803
tRp489
ag4
(F0.80339507487326878
F0.73168416858631613
tRp490
ag4
(F0.88037865330178133
F0.90144390702444332
tRp491
asS'iLLPMPcccdfeghhhhggaahhgb_20102211'
p492
(lp493
g4
(F0.1574919530227708
F0.64230043941435222
tRp494
ag4
(F1.1357797950829991
F1.0988769228244943
tRp495
ag4
(F0.75065112166777848
F0.57227173915303997
tRp496
ag4
(F1.1357797950829989
F1.0988769228244946
tRp497
ag4
(F0.61276539380767026
F0.41090992792855568
tRp498
ag4
(F0.6127653938076697
F0.41090992792855574
tRp499
ag4
(F-0.47909153150177913
F1.625482106495947
tRp500
ag4
(F-0.47909153150177924
F1.6254821064959462
tRp501
asS'fLLQcbecdeepuwsua_20102'
p502
(lp503
g4
(F0.63054057134145836
F0.6513644641709001
tRp504
ag4
(F0.63054057134145813
F0.65136446417089977
tRp505
ag4
(F0.89162171402437473
F1.9540933925127006
tRp506
ag4
(F0.23278561593838393
F0.79255199251544795
tRp507
ag4
(F0.65883609808599075
F1.1615413999972519
tRp508
asS'hLLAPkccedfggglnxkrgkw_1200111'
p509
(lp510
g4
(F0.52263578610466355
F0.53491597892973131
tRp511
ag4
(F-0.012986939597112791
F0.5591324662957714
tRp512
ag4
(F0.9287030168282695
F1.0406688832577811
tRp513
ag4
(F0.52610203622433249
F0.59790631551690476
tRp514
ag4
(F1.0569483102364454
F0.72974660044016193
tRp515
ag4
(F0.54613002962048618
F1.3771442550189668
tRp516
ag4
(F0.54613002962048551
F1.3771442550189663
tRp517
asS'hLvMQkbefgfeggxddaddvv_1022221'
p518
(lp519
g4
(F0.85411670628117486
F0.33992576345068598
tRp520
ag4
(F1.0661531615035276
F2.4842661427563035
tRp521
ag4
(F-0.17737775640166831
F0.2509129951774785
tRp522
ag4
(F-0.17737775640166875
F0.25091299517747845
tRp523
ag4
(F-0.17737775640166867
F0.25091299517747856
tRp524
ag4
(F-0.1773777564016682
F0.25091299517747861
tRp525
ag4
(F0.85411670628117542
F0.3399257634506862
tRp526
asS'iLLLMQcbefghfhghhhexlgkrk_01110220'
p527
(lp528
g4
(F6.0800000000000002e-16
F2.1467031149033042
tRp529
ag4
(F1.1783060625508419
F0.38277017988403594
tRp530
ag4
(F0.68166411896634194
F0.73166524375143094
tRp531
ag4
(F0.68166411896634194
F0.73166524375143094
tRp532
ag4
(F-3.4499999999999999e-16
F2.1467031149033038
tRp533
ag4
(F0.31833588103365806
F0.73166524375143094
tRp534
ag4
(F2.0706680578276826
F1.1492032273830786
tRp535
ag4
(F0.49999999999999983
F1.1492032273830781
tRp536
asS'gLMzQbcdefffhhhhhpe_122112'
p537
(lp538
g4
(F0.83744720895932589
F0.094170689286919448
tRp539
ag4
(F-0.17919428435519255
F0.13260004615564669
tRp540
ag4
(F-0.18131088265957898
F0.26390471180142694
tRp541
ag4
(F0.80627789633971725
F0.18012238690829976
tRp542
ag4
(F0.91401599020943025
F0.53890442876447653
tRp543
ag4
(F0.18814984263644938
F0.47866738654769803
tRp544
asS'iLvwQQcbeghfhgghhehhprrww_12000022'
p545
(lp546
g4
(F0.57741461104764569
F0.72624259612952846
tRp547
ag4
(F0.32923965738226252
F0.84364808801702007
tRp548
ag4
(F0.42508814129876027
F1.2348802801345842
tRp549
ag4
(F0.42508814129876127
F1.2348802801345844
tRp550
ag4
(F0.42508814129876121
F1.2348802801345842
tRp551
ag4
(F0.42508814129876105
F1.2348802801345846
tRp552
ag4
(F-0.42258538895235481
F0.72624259612952835
tRp553
ag4
(F-0.094652221308808182
F0.69131824902616124
tRp554
asS'gLMzQbcdefffhhqqxhq_122001'
p555
(lp556
g4
(F0.625
F0.3307189138830739
tRp557
ag4
(F0.24999999999999994
F0.66143782776614746
tRp558
ag4
(F0.25
F0.66143782776614757
tRp559
ag4
(F0.50000000000000011
F1.3228756555322947
tRp560
ag4
(F0.50000000000000033
F1.3228756555322949
tRp561
ag4
(F0.625
F0.3307189138830739
tRp562
asS'fLLQccecddehqrwjj_20102'
p563
(lp564
g4
(F0.041074970449492106
F0.54796813807782363
tRp565
ag4
(F1.6906721162287055
F2.8925782575500487
tRp566
ag4
(F0.78612894139911926
F0.44922553800633314
tRp567
ag4
(F1.8267016658331086
F1.0778512302488603
tRp568
ag4
(F0.1048367199639567
F0.27576700886209959
tRp569
asS'fLLQcbeddeehhnkhh_21112'
p570
(lp571
g4
(F1.2
F0.40000000000000013
tRp572
ag4
(F-3.2200000000000001e-16
F1.9999999999999991
tRp573
ag4
(F1.2200000000000001e-16
F2
tRp574
ag4
(F-3.2200000000000001e-16
F2
tRp575
ag4
(F1.2
F0.39999999999999997
tRp576
asS'iLLAPPcbeddfghhhhhnkbgqqa_21112220'
p577
(lp578
g4
(F0.78298941239788133
F0.4882286835309344
tRp579
ag4
(F1.6007718031343554
F1.524063567769536
tRp580
ag4
(F0.27741137157544166
F1.1280587246671834
tRp581
ag4
(F0.27741137157544188
F1.1280587246671829
tRp582
ag4
(F0.77221387744045422
F0.6591704922148931
tRp583
ag4
(F0.74495153610296372
F0.67744781839779855
tRp584
ag4
(F0.74495153610296405
F0.67744781839779833
tRp585
ag4
(F1.2652528800915683
F0.66816807447623794
tRp586
asS'iLLwQPcbeefgehhhxxhaahxqh_10221110'
p587
(lp588
g4
(F0.99999999999999889
F0.99999999999999978
tRp589
ag4
(F0.50000000000000011
F0.50000000000000011
tRp590
ag4
(F6.1000000000000005e-17
F1
tRp591
ag4
(F6.1000000000000005e-17
F1
tRp592
ag4
(F1.0000000000000007
F0.99999999999999956
tRp593
ag4
(F0.99999999999999956
F1.0000000000000004
tRp594
ag4
(F1.0000000000000011
F1
tRp595
ag4
(F0.49999999999999989
F0.49999999999999944
tRp596
asS'iLLALQcccedhghghlnhchwxvq_12001112'
p597
(lp598
g4
(F0.57864905306918724
F0.65257576325237243
tRp599
ag4
(F-0.091020400166547985
F0.75522469492377542
tRp600
ag4
(F0.69830412636804606
F1.0815125765499614
tRp601
ag4
(F0.15729810613837636
F1.3051515265047446
tRp602
ag4
(F0.90897959983345256
F0.7552246949237752
tRp603
ag4
(F0.57864905306918812
F0.65257576325237143
tRp604
ag4
(F0.57864905306918757
F0.65257576325237177
tRp605
ag4
(F-0.091020400166546722
F0.75522469492377475
tRp606
asS'hLMzMkbcdefggghhhhxxfo_1221100'
p607
(lp608
g4
(F0.7642347873055847
F0.14549897861522998
tRp609
ag4
(F-0.22599972019369594
F0.39976650629639804
tRp610
ag4
(F-0.22599972019369571
F0.39976650629639809
tRp611
ag4
(F0.99147505186390239
F0.76115498055958764
tRp612
ag4
(F0.99147505186390272
F0.76115498055958719
tRp613
ag4
(F0.72347854017153179
F1.1611544591315739
tRp614
ag4
(F0.72347854017153157
F1.1611544591315732
tRp615
asS'iLLLAQccdgfeghhhhfhaqfipa_20102220'
p616
(lp617
g4
(F0.29867088142181236
F0.33233866846010174
tRp618
ag4
(F0.74345727411976359
F1.7806902824730308
tRp619
ag4
(F0.011469309792727127
F0.70538011150510582
tRp620
ag4
(F1.0310419643176563
F1.712290913552865
tRp621
ag4
(F0.10257482245249114
F0.74740138517272037
tRp622
ag4
(F0.19894984550495579
F0.49081510031169473
tRp623
ag4
(F0.40336324566647114
F0.63930707490930405
tRp624
ag4
(F0.77121694835443111
F0.89502973425293109
tRp625
asS'iLLLQMcbceegfghhxclemskar_10222112'
p626
(lp627
g4
(F0.54705522148856622
F0.74477564550288489
tRp628
ag4
(F0.59609783084353474
F0.98016174997843875
tRp629
ag4
(F-0.45294477851143378
F0.74477564550288522
tRp630
ag4
(F0.45757448725317323
F0.81382995146187509
tRp631
ag4
(F0.45757448725317335
F0.81382995146187487
tRp632
ag4
(F0.82900484257318052
F0.60654216969741603
tRp633
ag4
(F0.82900484257318074
F0.60654216969741592
tRp634
ag4
(F-0.0014455182554446091
F0.45558525141455958
tRp635
asS'gLMzQbcdefffhhhqxdu_122100'
p636
(lp637
g4
(F0.62190213347233569
F0.43812180422056207
tRp638
ag4
(F-0.074629662876586261
F0.7570623437801216
tRp639
ag4
(F0.49999999999999994
F0.29139099506719829
tRp640
ag4
(F1.4929441429121912
F0.87006095876585898
tRp641
ag4
(F0.37809786652766425
F0.43812180422056235
tRp642
ag4
(F0.37809786652766419
F0.43812180422056218
tRp643
asS'iLLAwQccecdfhghhhqrwqaakn_20102200'
p644
(lp645
g4
(F0.11407774682698088
F0.5575712540199691
tRp646
ag4
(F1.6477988712610419
F1.7214332372471357
tRp647
ag4
(F0.80851211604688078
F0.50885177883273813
tRp648
ag4
(F1.6477988712610425
F1.7214332372471353
tRp649
ag4
(F-0.1914878839531188
F0.50885177883273758
tRp650
ag4
(F-0.1914878839531188
F0.50885177883273758
tRp651
ag4
(F0.64779887126104152
F1.7214332372471384
tRp652
ag4
(F0.64779887126104174
F1.7214332372471381
tRp653
asS'hLMzMkbcdefggghhhhxxnk_1221100'
p654
(lp655
g4
(F0.70579081282543688
F0.21641984757264335
tRp656
ag4
(F-0.076849397742586853
F0.60664349888991076
tRp657
ag4
(F-0.076849397742586478
F0.60664349888990998
tRp658
ag4
(F1.6473716118814024
F0.79312424902649226
tRp659
ag4
(F1.6473716118814008
F0.79312424902649015
tRp660
ag4
(F0.37472123205377206
F0.49271789001741201
tRp661
ag4
(F0.37472123205377245
F0.49271789001741229
tRp662
asS'iLLALQcccedhgghhlnxkxrkaa_12001112'
p663
(lp664
g4
(F0.57864905306918812
F0.65257576325237199
tRp665
ag4
(F-0.091020400166547805
F0.75522469492377531
tRp666
ag4
(F0.69830412636804673
F1.0815125765499611
tRp667
ag4
(F0.15729810613837628
F1.305151526504744
tRp668
ag4
(F0.90897959983345167
F0.75522469492377531
tRp669
ag4
(F0.57864905306918824
F0.65257576325237243
tRp670
ag4
(F0.57864905306918768
F0.65257576325237188
tRp671
ag4
(F-0.091020400166547971
F0.75522469492377531
tRp672
asS'ivLLQQccdhghgfhggrqlipigb_12020011'
p673
(lp674
g4
(F0.3016958736319536
F1.0815125765499611
tRp675
ag4
(F0.6508479368159773
F0.54075628827498046
tRp676
ag4
(F0.38034492670114184
F0.42893681329758948
tRp677
ag4
(F0.76068985340228334
F0.85787362659517874
tRp678
ag4
(F0.42135094693081226
F0.65257576325237243
tRp679
ag4
(F0.38034492670114206
F0.42893681329758937
tRp680
ag4
(F0.30169587363195338
F1.0815125765499611
tRp681
ag4
(F0.84270189386162486
F1.3051515265047433
tRp682
asS'iLPLwQcbdcefghhhxccxxqqfo_10221122'
p683
(lp684
g4
(F0.80851211604688178
F0.50885177883273824
tRp685
ag4
(F0.6477988712610443
F1.7214332372471388
tRp686
ag4
(F-0.19148788395311855
F0.50885177883273758
tRp687
ag4
(F-0.19148788395311855
F0.50885177883273758
tRp688
ag4
(F0.70982168880353991
F0.3031453646035992
tRp689
ag4
(F0.70982168880354046
F0.30314536460360014
tRp690
ag4
(F0.11407774682698046
F0.55757125401996899
tRp691
ag4
(F0.11407774682698155
F0.55757125401996921
tRp692
asS'hLLwQkbeegfegghhaqqafo_0111000'
p693
(lp694
g4
(F0.24194412752152492
F2.7733955050593493
tRp695
ag4
(F1.0917035833396873
F0.33550337787185508
tRp696
ag4
(F0.73439122427034742
F0.17892274919649109
tRp697
ag4
(F0.73439122427034753
F0.17892274919649123
tRp698
ag4
(F0.24194412752153058
F2.7733955050593506
tRp699
ag4
(F1.5897545123014587
F1.7445432509226573
tRp700
ag4
(F1.5897545123014587
F1.7445432509226571
tRp701
asS'fLMPcbcdeeehhqqnk_12200'
p702
(lp703
g4
(F0.58247015942811187
F0.37416156391807187
tRp704
ag4
(F0.35955182406682035
F0.63720392346769272
tRp705
ag4
(F0.35955182406682029
F0.63720392346769239
tRp706
ag4
(F0.63215812398614724
F0.99518043846170401
tRp707
ag4
(F0.63215812398614746
F0.99518043846170356
tRp708
asS'iLvLQQcbehegghhgheaeagjfg_12000011'
p709
(lp710
g4
(F0.080014713832083209
F1.1605072140816453
tRp711
ag4
(F0.91428287742885306
F0.46043771311149229
tRp712
ag4
(F0.31001272196411017
F0.271586561920933
tRp713
ag4
(F0.31001272196411012
F0.27158656192093311
tRp714
ag4
(F0.1275227991209473
F0.43938415235817213
tRp715
ag4
(F0.12752279912094763
F0.43938415235817202
tRp716
ag4
(F0.39077729816606344
F2.0990975910807816
tRp717
ag4
(F0.080014713832082945
F1.1605072140816453
tRp718
asS'gLLPQccdfeffhggaagb_201022'
p719
(lp720
g4
(F0.25000000000000017
F0.66143782776614779
tRp721
ag4
(F1.5
F1.3228756555322954
tRp722
ag4
(F0.75000000000000011
F0.66143782776614735
tRp723
ag4
(F1.5
F1.3228756555322954
tRp724
ag4
(F0.25000000000000017
F0.66143782776614735
tRp725
ag4
(F0.24999999999999975
F0.66143782776614779
tRp726
asS'gLLPQcdeffefqgddahg_210122'
p727
(lp728
g4
(F0.91390052118340825
F0.44553640173437087
tRp729
ag4
(F-2.189552583265725
F2.467143268036756
tRp730
ag4
(F0.11590826535419942
F0.43100429546438418
tRp731
ag4
(F-1.1895525832657265
F2.4671432680367551
tRp732
ag4
(F1.1585682939390081
F0.32887213597711756
tRp733
ag4
(F1.2012283225238169
F0.2267399764898512
tRp734
asS'iLvwQQcbeghfhgghhehapgrwg_21112202'
p735
(lp736
g4
(F1.3065317851627278
F0.94254184086465509
tRp737
ag4
(F-0.31204027676031182
F0.95947967263964773
tRp738
ag4
(F0.68455888483703864
F1.3226368176162218
tRp739
ag4
(F0.68455888483703897
F1.3226368176162218
tRp740
ag4
(F0.69136056164233695
F0.59632252766307281
tRp741
ag4
(F0.69136056164233717
F0.59632252766307292
tRp742
ag4
(F0.30653178516272772
F0.9425418408646552
tRp743
ag4
(F1.0836059847539385
F0.53926622075628128
tRp744
asS'hLLAMkbeddfggghhcvahqx_1200112'
p745
(lp746
g4
(F1.5000000000000002
F1.3228756555322958
tRp747
ag4
(F-0.25000000000000017
F0.66143782776614779
tRp748
ag4
(F0.25000000000000006
F0.66143782776614779
tRp749
ag4
(F0.25000000000000044
F0.66143782776614746
tRp750
ag4
(F0.6875
F0.16535945694153692
tRp751
ag4
(F1.4999999999999996
F1.3228756555322949
tRp752
ag4
(F-0.24999999999999972
F0.66143782776614757
tRp753
asS'gLLPQccdfeffhwraarw_201022'
p754
(lp755
g4
(F0.24999999999999928
F0.6614378277661479
tRp756
ag4
(F1.5000000000000009
F1.3228756555322951
tRp757
ag4
(F0.75000000000000033
F0.66143782776614823
tRp758
ag4
(F1.5000000000000002
F1.3228756555322958
tRp759
ag4
(F0.25
F0.66143782776614712
tRp760
ag4
(F0.25000000000000006
F0.66143782776614812
tRp761
asS'gLLMQbdeefffxneiahv_102221'
p762
(lp763
g4
(F0.66235897862237303
F0.5622795120623012
tRp764
ag4
(F0.78492014549902778
F1.3071412786820442
tRp765
ag4
(F0.1225611668766535
F0.74486176661974446
tRp766
ag4
(F0.12256116687665364
F0.74486176661974435
tRp767
ag4
(F0.12256116687665373
F0.74486176661974379
tRp768
ag4
(F0.6623589786223737
F0.56227951206230153
tRp769
asS'fLMPcbcdeeehhhhkn_12211'
p770
(lp771
g4
(F0.79787197098827989
F0.12721294470818459
tRp772
ag4
(F-0.20982168880354016
F0.30314536460359964
tRp773
ag4
(F-0.20982168880354002
F0.30314536460359975
tRp774
ag4
(F0.88592225317301854
F0.55757125401996854
tRp775
ag4
(F0.88592225317301898
F0.55757125401996865
tRp776
asS'iLMzMPcbcdefghhhhhhqxqqul_12210022'
p777
(lp778
g4
(F0.66917922702984922
F0.34436540595510151
tRp779
ag4
(F-0.27991172146348386
F0.5120086854300373
tRp780
ag4
(F0.48067485617663885
F0.36808514976732259
tRp781
ag4
(F0.83378774065165417
F0.69341689417261709
tRp782
ag4
(F0.53722908763211619
F0.60222853595802861
tRp783
ag4
(F0.63880961400973557
F1.2820532822803503
tRp784
ag4
(F0.46685509883905679
F0.46335339052967811
tRp785
ag4
(F-0.15566900743803649
F0.79112062512619608
tRp786
asS'iLMzMPcbcdefghhhhhhhxxxhq_12211001'
p787
(lp788
g4
(F0.69519410160110362
F0.24391866164910353
tRp789
ag4
(F-3.7799999999999998e-16
F0.62481053384382679
tRp790
ag4
(F3.8000000000000001e-17
F0.62481053384382723
tRp791
ag4
(F1.7807764064044147
F0.62481053384382801
tRp792
ag4
(F1.7807764064044169
F0.62481053384382745
tRp793
ag4
(F0.28077640640441515
F0.44937847746753284
tRp794
ag4
(F0.28077640640441459
F0.44937847746753296
tRp795
ag4
(F-0.99999999999999822
F1.600485180440242
tRp796
asS'iLMzMPcbcdefghhhhxqqxhhep_12002112'
p797
(lp798
g4
(F0.50000000000000011
F0.86602540378443926
tRp799
ag4
(F0.4999999999999995
F0.86602540378443882
tRp800
ag4
(F0.5
F0.86602540378443882
tRp801
ag4
(F0.49999999999999911
F0.86602540378443826
tRp802
ag4
(F0.50000000000000022
F0.86602540378443837
tRp803
ag4
(F0.50000000000000022
F0.86602540378443771
tRp804
ag4
(F0.49999999999999933
F0.86602540378443849
tRp805
ag4
(F0.50000000000000155
F0.86602540378443882
tRp806
asS'hLLLQkcegfeegghhhahabg_2010222'
p807
(lp808
g4
(F0.28326786340873567
F0.37340342189805537
tRp809
ag4
(F0.71048921347739979
F1.6998318639739578
tRp810
ag4
(F-0.39580764687625641
F0.89764643539462874
tRp811
ag4
(F0.7104892134774009
F1.6998318639739551
tRp812
ag4
(F0.28326786340873572
F0.37340342189805531
tRp813
ag4
(F0.28326786340873572
F0.37340342189805514
tRp814
ag4
(F1.4112574303076246
F0.93268477569511998
tRp815
asS'gLLAQbecdfffhhnkqnc_120012'
p816
(lp817
g4
(F0.92314221577420486
F0.9853733543905342
tRp818
ag4
(F-0.29947574053100134
F0.44832432157891566
tRp819
ag4
(F0.078677776929936036
F1.0087070002132608
tRp820
ag4
(F0.078677776929934731
F1.0087070002132614
tRp821
ag4
(F0.73789498352596916
F0.13340505745111064
tRp822
ag4
(F-0.29947574053100123
F0.4483243215789155
tRp823
asS'iLMzMPcbcdefghhhhhhhhxqlm_12211200'
p824
(lp825
g4
(F0.80979747097656907
F0.10686839682397171
tRp826
ag4
(F-0.21373832738156631
F0.16017618461397973
tRp827
ag4
(F-0.19837468084524401
F0.35760053430706634
tRp828
ag4
(F0.76623401014405579
F0.22864776418548557
tRp829
ag4
(F1.0352021539168046
F0.76570896416631951
tRp830
ag4
(F0.37561456443067798
F0.4618397704268542
tRp831
ag4
(F0.73336667128658828
F1.2087940247746167
tRp832
ag4
(F0.73336667128658695
F1.2087940247746178
tRp833
asS'hLMzMkbcdefggghhhqxxbw_1221001'
p834
(lp835
g4
(F0.71040785290981601
F0.24099233540205373
tRp836
ag4
(F-0.26237137623038193
F0.42823544933572733
tRp837
ag4
(F0.26061433761308767
F0.56652774208298706
tRp838
ag4
(F0.85217548477236527
F0.65294889772142872
tRp839
ag4
(F0.58744432247771061
F1.4254765570774288
tRp840
ag4
(F0.58744432247770928
F1.4254765570774284
tRp841
ag4
(F0.65126158533566181
F0.3131564538153061
tRp842
asS'hLMzMkbcdefggghhqqqqwr_1220022'
p843
(lp844
g4
(F0.47713526785719823
F0.54672341675819991
tRp845
ag4
(F0.51909026010086357
F0.45647122231574749
tRp846
ag4
(F0.51909026010086345
F0.4564712223157476
tRp847
ag4
(F0.43509333764429159
F0.42161460486548064
tRp848
ag4
(F0.43509333764429148
F0.42161460486548069
tRp849
ag4
(F0.70779662131580801
F0.72144033166904975
tRp850
ag4
(F0.70779662131580845
F0.72144033166905008
tRp851
asS'iLLAPMcacdefgghhjkaqhxkaj_20021002'
p852
(lp853
g4
(F0.14450962609848045
F0.38918045764055564
tRp854
ag4
(F0.25476201584942759
F1.2539445816354289
tRp855
ag4
(F0.25476201584942776
F1.2539445816354271
tRp856
ag4
(F-1.0097312566633343
F1.0700171919407722
tRp857
ag4
(F-0.0097312566633340914
F1.070017191940773
tRp858
ag4
(F0.25476201584942681
F1.2539445816354295
tRp859
ag4
(F0.25476201584942787
F1.2539445816354275
tRp860
ag4
(F0.14450962609848023
F0.38918045764055553
tRp861
asS'eLAkbbcdddhwqj_2102'
p862
(lp863
g4
(F-0.0073610212761130436
F0.87699764026247795
tRp864
ag4
(F0.56469555847715669
F0.49161786270408658
tRp865
ag4
(F0.75434863383950201
F1.7669064771031018
tRp866
ag4
(F0.24786031603433417
F0.25026476150507188
tRp867
asS'iLLvQQccdfeghghhqraqsjffk_02221000'
p868
(lp869
g4
(F0.49659916159735079
F0.36315714497657425
tRp870
ag4
(F0.69136056164233695
F0.59632252766307314
tRp871
ag4
(F1.3065317851627285
F0.94254184086465476
tRp872
ag4
(F0.69136056164233695
F0.59632252766307314
tRp873
ag4
(F0.68795972323968957
F0.95947967263964795
tRp874
ag4
(F0.26034225408874301
F0.36809730003590563
tRp875
ag4
(F0.17061280791052635
F0.71537529653598764
tRp876
ag4
(F0.17061280791052619
F0.71537529653598764
tRp877
asS'iLLzPQccdcghfhghhsrwsbwwg_12220110'
p878
(lp879
g4
(F1.1218318543213872
F0.31616050509252863
tRp880
ag4
(F0.47221357881077686
F0.57698038100850602
tRp881
ag4
(F0.16612231582989193
F0.12268714971812
tRp882
ag4
(F0.47221357881077669
F0.57698038100850579
tRp883
ag4
(F0.41102839598124596
F0.2683745731653166
tRp884
ag4
(F0.29427037077326901
F1.1137295273391392
tRp885
ag4
(F0.2942703707732689
F1.1137295273391388
tRp886
ag4
(F0.41102839598124613
F0.26837457316531654
tRp887
asS'iLLLAQccdffgfhhhqgdatgqdm_21012210'
p888
(lp889
g4
(F0.62192277119593853
F0.51653591498789686
tRp890
ag4
(F-0.67011641326537674
F1.5620425219702716
tRp891
ag4
(F0.29387283358492822
F0.75273433244418164
tRp892
ag4
(F-0.48691875422539554
F1.331564077823526
tRp893
ag4
(F0.58987084385532951
F0.36656668333389514
tRp894
ag4
(F1.1006688185396263
F0.66692343797558895
tRp895
ag4
(F0.96836979690292235
F1.236703734139412
tRp896
ag4
(F0.89634310270455564
F0.79340778574127691
tRp897
asS'ivvPQQcgfhfhgfghappppaaaa_21001020'
p898
(lp899
g4
(F0.49999999999999978
F0.86602540378443849
tRp900
ag4
(F0.5
F0.86602540378443893
tRp901
ag4
(F0.49999999999999989
F0.86602540378443804
tRp902
ag4
(F0.49999999999999967
F0.8660254037844386
tRp903
ag4
(F0.49999999999999944
F0.86602540378443882
tRp904
ag4
(F0.50000000000000078
F0.86602540378443849
tRp905
ag4
(F0.49999999999999933
F0.86602540378443904
tRp906
ag4
(F0.49999999999999933
F0.86602540378443926
tRp907
asS'hLvPQkccgfeefghraaassw_1222001'
p908
(lp909
g4
(F0.66398714359263056
F0.41818223582156799
tRp910
ag4
(F0.43448194502312165
F0.42821303489692886
tRp911
ag4
(F0.27966232664474955
F0.31921476716459102
tRp912
ag4
(F0.43448194502312187
F0.42821303489692902
tRp913
ag4
(F0.55637826300400861
F0.5071799019677955
tRp914
ag4
(F0.6274610275866962
F0.64032296031753499
tRp915
ag4
(F0.43546460171346607
F0.75366334092452447
tRp916
asS'iLLALQccedefghhhiikarbwbk_10221011'
p917
(lp918
g4
(F0.58352714174843368
F0.85446380069830397
tRp919
ag4
(F0.46092541395004011
F0.94566566161267274
tRp920
ag4
(F0.46092541395003833
F0.9456656616126734
tRp921
ag4
(F0.36337391243308492
F0.64795715341978732
tRp922
ag4
(F0.45495943276219736
F0.79810757940296517
tRp923
ag4
(F0.61081422797823137
F0.47198877513925896
tRp924
ag4
(F0.68740329573925951
F1.1548939633136857
tRp925
ag4
(F0.68740329573925751
F1.1548939633136852
tRp926
asS'fLMPcbcdeeehhhhvc_12211'
p927
(lp928
g4
(F0.79787197098827989
F0.12721294470818453
tRp929
ag4
(F-0.20982168880354007
F0.30314536460359959
tRp930
ag4
(F-0.20982168880354021
F0.30314536460359975
tRp931
ag4
(F0.88592225317301843
F0.55757125401996843
tRp932
ag4
(F0.88592225317301887
F0.5575712540199691
tRp933
asS'hLLAPkccedfggglnhcrwwv_1200111'
p934
(lp935
g4
(F0.68166411896634205
F0.73166524375143138
tRp936
ag4
(F-0.07066805782768211
F0.99749988752022634
tRp937
ag4
(F0.49999999999999961
F1.1492032273830779
tRp938
ag4
(F0.070668057827681943
F0.99749988752022545
tRp939
ag4
(F0.49999999999999989
F0.46583059998263615
tRp940
ag4
(F0.68166411896634216
F0.73166524375143094
tRp941
ag4
(F0.68166411896634205
F0.73166524375143127
tRp942
asS'iLLLQPcceegfghhhiimaimimi_10221212'
p943
(lp944
g4
(F0.5
F0.86602540378443871
tRp945
ag4
(F0.50000000000000011
F0.86602540378443837
tRp946
ag4
(F0.50000000000000011
F0.8660254037844386
tRp947
ag4
(F0.49999999999999983
F0.86602540378443882
tRp948
ag4
(F0.50000000000000067
F0.8660254037844386
tRp949
ag4
(F0.50000000000000067
F0.86602540378443849
tRp950
ag4
(F0.49999999999999983
F0.86602540378443882
tRp951
ag4
(F0.50000000000000044
F0.86602540378443826
tRp952
asS'iLLLPQccdehghhgghftxgnvcn_20102201'
p953
(lp954
g4
(F0.1588631105002021
F0.77886017029833077
tRp955
ag4
(F1.0962714086259437
F1.2125054189566959
tRp956
ag4
(F0.64006913537511556
F0.59267922023658703
tRp957
ag4
(F0.57747743350085745
F1.0263244688949515
tRp958
ag4
(F-0.065072977897195128
F0.81957186930299653
tRp959
ag4
(F0.29237661070475401
F0.61281926971104128
tRp960
ag4
(F0.57747743350085667
F1.0263244688949524
tRp961
ag4
(F0.80753269187551546
F0.6993431845092194
tRp962
asS'iLLAwQcccedfghhhlnhcqeesr_12001122'
p963
(lp964
g4
(F0.62842226077795194
F0.5936370090446289
tRp965
ag4
(F0.042509639333818849
F0.74610942261057411
tRp966
ag4
(F0.75758765232469438
F1.2103310304776405
tRp967
ag4
(F0.08577018144137169
F0.94643924614648511
tRp968
ag4
(F0.90502732440407818
F1.0479850454433195
tRp969
ag4
(F-0.34884327410677196
F1.4400349493474605
tRp970
ag4
(F0.75260957635243242
F0.95669454295723777
tRp971
ag4
(F0.75260957635243086
F0.95669454295723866
tRp972
asS'hLLAMkcdcefggghfrtxhum_2010211'
p973
(lp974
g4
(F0.51938984689338463
F0.71324274481177985
tRp975
ag4
(F0.70201167454813795
F0.89502541706799077
tRp976
ag4
(F0.64973541634019849
F0.96423071538629357
tRp977
ag4
(F-0.0051823281546591786
F1.1007850240727621
tRp978
ag4
(F0.45235302240811315
F0.49537623047456342
tRp979
ag4
(F-0.5978774659626247
F1.2095912458723757
tRp980
ag4
(F-0.59787746596262437
F1.2095912458723763
tRp981
asS'hLLPMkccdfeggghggaahah_2010221'
p982
(lp983
g4
(F0.18831172373652219
F0.64437528668977695
tRp984
ag4
(F1.2414737753861727
F1.1545518661002705
tRp985
ag4
(F0.75572152894895805
F0.59994494329255188
tRp986
ag4
(F1.2414737753861733
F1.1545518661002714
tRp987
ag4
(F0.55316205164965093
F0.51017657941049355
tRp988
ag4
(F0.55316205164965082
F0.51017657941049399
tRp989
ag4
(F-0.028495507125569922
F1.1092138456154375
tRp990
asS'iLMzMPcbcdefghhhhhhhhhhml_12211221'
p991
(lp992
g4
(F0.89393889151373096
F0.047383429590085561
tRp993
ag4
(F-0.1155106096855206
F0.059127887748035603
tRp994
ag4
(F-0.13546019692206379
F0.094492881985650673
tRp995
ag4
(F0.87464279647410303
F0.072787684474420786
tRp996
ag4
(F0.83606425941316531
F0.16813148039022188
tRp997
ag4
(F-0.14959007443513342
F0.23118113097233647
tRp998
ag4
(F0.18826840644334142
F0.44652069767430697
tRp999
ag4
(F0.94575565506620873
F0.52024521194161033
tRp1000
asS'cPcbbbdxm_10'
p1001
(lp1002
g4
(F0.5
F0.86602540378443849
tRp1003
ag4
(F0.49999999999999978
F0.86602540378443882
tRp1004
asS'iLLLQPccegfeehhhhqhaxhhha_12220112'
p1005
(lp1006
g4
(F0.75000000000000022
F0.3471493941982608
tRp1007
ag4
(F0.15849364905389018
F0.47421489138320233
tRp1008
ag4
(F0.18301270189221935
F0.25413099436988312
tRp1009
ag4
(F0.15849364905389041
F0.47421489138320244
tRp1010
ag4
(F0.74999999999999989
F0.34714939419826057
tRp1011
ag4
(F0.74999999999999989
F0.34714939419826057
tRp1012
ag4
(F1.1830127018922194
F0.25413099436988307
tRp1013
ag4
(F0.18301270189221933
F0.25413099436988329
tRp1014
asS'iLLLQPccegfeehhhhhhahahha_20102221'
p1015
(lp1016
g4
(F0.29060173730477956
F0.3469486011540498
tRp1017
ag4
(F0.58120347460955846
F1.6938972023081
tRp1018
ag4
(F-0.55634686384927012
F1.137550338458829
tRp1019
ag4
(F0.58120347460955935
F1.6938972023080987
tRp1020
ag4
(F0.29060173730477945
F0.34694860115404957
tRp1021
ag4
(F0.29060173730477951
F0.34694860115404907
tRp1022
ag4
(F1.4187965253904407
F0.30610279769190102
tRp1023
ag4
(F-0.55634686384926935
F1.137550338458829
tRp1024
asS'iLMzMPcbcdefghhhhhqqxxhqx_12200112'
p1025
(lp1026
g4
(F0.55567854428780616
F0.41213954980062717
tRp1027
ag4
(F0.41952065336012029
F0.5957181912112729
tRp1028
ag4
(F0.41952065336012062
F0.59571819121127201
tRp1029
ag4
(F0.6163271295690167
F0.78749023445196875
tRp1030
ag4
(F0.61632712956901714
F0.78749023445196797
tRp1031
ag4
(F0.79023967331993894
F1.1221381952068905
tRp1032
ag4
(F0.79023967331994005
F1.1221381952068907
tRp1033
ag4
(F1.1609586932797589
F0.86106796475053993
tRp1034
asS'iLLAMMccedefgghhiikaevfpj_10221012'
p1035
(lp1036
g4
(F0.70912524706268332
F0.70032879614378096
tRp1037
ag4
(F0.50580883907907515
F1.2178179500765016
tRp1038
ag4
(F0.50580883907907459
F1.2178179500765012
tRp1039
ag4
(F-0.15861608493753762
F0.79931697586261274
tRp1040
ag4
(F0.28610524976004237
F0.70503913530062268
tRp1041
ag4
(F0.1470191628206623
F0.82384223165596848
tRp1042
ag4
(F0.79007178770068331
F1.17636179930628
tRp1043
ag4
(F0.82488331009258364
F0.36567928442212017
tRp1044
asS'iLLAMPccdcefghhhhfrtxhxjo_20102110'
p1045
(lp1046
g4
(F0.54004481396740511
F0.68474354118704372
tRp1047
ag4
(F0.64041018568076646
F0.89787565080287846
tRp1048
ag4
(F0.67597475510345384
F1.0063357510002775
tRp1049
ag4
(F-0.082101759434638599
F1.1247327523997708
tRp1050
ag4
(F0.44421838357054172
F0.46171902121378205
tRp1051
ag4
(F-0.8181486057532793
F1.4653432390495602
tRp1052
ag4
(F-0.81814860575327963
F1.4653432390495591
tRp1053
ag4
(F0.27932350794302357
F0.14523890366757636
tRp1054
asS'iLLvQQccdfehghghhsahwrggn_12220111'
p1055
(lp1056
g4
(F0.96848857671018229
F0.44058570265935948
tRp1057
ag4
(F0.35024586963676202
F0.58932706036420979
tRp1058
ag4
(F0.14450962609848006
F0.38918045764055537
tRp1059
ag4
(F0.35024586963676158
F0.58932706036420968
tRp1060
ag4
(F0.46649759983418082
F0.49434980696859943
tRp1061
ag4
(F0.38768289256004568
F0.20640936875773874
tRp1062
ag4
(F0.84439930423795495
F0.76587025227826344
tRp1063
ag4
(F0.84439930423795528
F0.76587025227826411
tRp1064
asS'ivvPQQcfghghfghfahhhhaaaa_10000122'
p1065
(lp1066
g4
(F5.0500000000000002e-16
F0.99999999999999978
tRp1067
ag4
(F-3.8300000000000001e-16
F1.0000000000000002
tRp1068
ag4
(F5.0500000000000002e-16
F1.0000000000000002
tRp1069
ag4
(F-8.2700000000000003e-16
F1.0000000000000004
tRp1070
ag4
(F2.8300000000000001e-16
F1.0000000000000002
tRp1071
ag4
(F5.0500000000000002e-16
F0.99999999999999967
tRp1072
ag4
(F-6.0499999999999997e-16
F0.99999999999999978
tRp1073
ag4
(F-6.0499999999999997e-16
F0.99999999999999978
tRp1074
asS'iLLLQPcbeefeghhhhhhqhqxxa_01110221'
p1075
(lp1076
g4
(F1.0000000000000002
F1.0000000000000002
tRp1077
ag4
(F0.99999999999999978
F1
tRp1078
ag4
(F0.99999999999999956
F1
tRp1079
ag4
(F0.99999999999999956
F1
tRp1080
ag4
(F0.99999999999999978
F1
tRp1081
ag4
(F1.0000000000000007
F0.99999999999999978
tRp1082
ag4
(F0.99999999999999978
F1.0000000000000004
tRp1083
ag4
(F1.0000000000000013
F0.99999999999999978
tRp1084
asS'iLMzMPcbcdefghhhhhhhxxqdl_12211002'
p1085
(lp1086
g4
(F0.73486392349159102
F0.17453689052878302
tRp1087
ag4
(F-0.22708222307423953
F0.46306846130327189
tRp1088
ag4
(F-0.13645774248803461
F0.55050984988153562
tRp1089
ag4
(F1.0642609452212659
F0.83551487875684605
tRp1090
ag4
(F1.488213472861331
F0.88804936405751644
tRp1091
ag4
(F0.70802653964083173
F0.9239056041768452
tRp1092
ag4
(F0.48508112197979786
F0.57363708474097641
tRp1093
ag4
(F0.52466416344484956
F0.62869485681692339
tRp1094
asS'iLLLQPccdgfefhhhhfhaqoqte_20102220'
p1095
(lp1096
g4
(F0.3420824977412173
F0.22442797107560619
tRp1097
ag4
(F0.47533694197556653
F1.9893762800707562
tRp1098
ag4
(F-0.099363045304465394
F0.91136550042503217
tRp1099
ag4
(F1.4753369419755689
F1.9893762800707548
tRp1100
ag4
(F0.12394915619752835
F0.46998069999940073
tRp1101
ag4
(F-0.11362011762400992
F0.47552198657362743
tRp1102
ag4
(F1.1182245849273476
F1.0843649937932383
tRp1103
ag4
(F-1.0436458023556188
F1.3407621963951402
tRp1104
asS'iLvLQQcbdhggfhhghwhhrrrww_21112200'
p1105
(lp1106
g4
(F0.84869563336895293
F0.55451561049051579
tRp1107
ag4
(F0.45796992530269204
F1.6784146972755545
tRp1108
ag4
(F0.77785701203329893
F1.0112207341472002
tRp1109
ag4
(F0.77785701203329771
F1.0112207341471999
tRp1110
ag4
(F0.52209191544838096
F0.62128457626410505
tRp1111
ag4
(F0.52209191544838085
F0.62128457626410505
tRp1112
ag4
(F1.4349732574091985
F0.35151866679580995
tRp1113
ag4
(F0.26149234919081021
F1.4957455650069562
tRp1114
asS'gLLAQbeddfffhhnkabg_211122'
p1115
(lp1116
g4
(F1.2426406871192852
F0.33570578220830671
tRp1117
ag4
(F0.49999999999999833
F2.3618694131442122
tRp1118
ag4
(F-0.41421356237309498
F1.9566366869570317
tRp1119
ag4
(F-0.41421356237309503
F1.956636686957032
tRp1120
ag4
(F0.91421356237309515
F0.40523272618718142
tRp1121
ag4
(F1.242640687119285
F0.33570578220830655
tRp1122
asS'iLLLQPccegfdehhhhqhajjhxq_20102221'
p1123
(lp1124
g4
(F0.31781070768723024
F0.34649804009522167
tRp1125
ag4
(F0.52363282472501171
F2.0742114958817282
tRp1126
ag4
(F-0.54815772100691817
F1.1954505047339135
tRp1127
ag4
(F0.60997059497654105
F1.1816703730491755
tRp1128
ag4
(F0.21778306649447349
F0.22134844640475099
tRp1129
ag4
(F0.31781070768723069
F0.34649804009522178
tRp1130
ag4
(F1.4046525137771932
F0.31246302962088912
tRp1131
ag4
(F-0.54815772100691851
F1.1954505047339141
tRp1132
asS'iLLLQPcbeegefhhhhhxaxahqx_12001112'
p1133
(lp1134
g4
(F0.99999999999999933
F1
tRp1135
ag4
(F-1.61e-16
F1
tRp1136
ag4
(F0.49999999999999989
F0.49999999999999978
tRp1137
ag4
(F0.50000000000000011
F0.49999999999999972
tRp1138
ag4
(F0.99999999999999978
F1.0000000000000002
tRp1139
ag4
(F1.0000000000000004
F0.99999999999999978
tRp1140
ag4
(F1.0000000000000009
F1.0000000000000002
tRp1141
ag4
(F7.2699999999999998e-16
F1
tRp1142
asS'gLPLQbdcefffhbbqqvc_211100'
p1143
(lp1144
g4
(F0.7807764064044157
F0.97567464659641434
tRp1145
ag4
(F0.21922359359558494
F0.97567464659641445
tRp1146
ag4
(F1.2192235935955853
F0.9756746465964139
tRp1147
ag4
(F1.2192235935955846
F0.97567464659641479
tRp1148
ag4
(F0.78077640640441526
F0.97567464659641423
tRp1149
ag4
(F0.78077640640441537
F0.97567464659641401
tRp1150
asS'iLAwMPcbcbdfghhhxxnxrpirf_01101122'
p1151
(lp1152
g4
(F-6.5638749866356667
F5.2231400518259408
tRp1153
ag4
(F1.0850736368992289
F0.052828511710596673
tRp1154
ag4
(F1.0972096655429129
F0.14010909195176016
tRp1155
ag4
(F0.086512811528936223
F3.6277782493879842
tRp1156
ag4
(F0.7662997134944326
F0.68000098434833156
tRp1157
ag4
(F0.76629971349443304
F0.68000098434833101
tRp1158
ag4
(F0.45201649654704146
F1.3152387067627749
tRp1159
ag4
(F0.45201649654704179
F1.315238706762776
tRp1160
asS'iLALPMcbcbfffghhxxnqhxaxk_01100210'
p1161
(lp1162
g4
(F-1.0154265687032051
F3.0783780049403484
tRp1163
ag4
(F1.1549792046668697
F0.17357953858023606
tRp1164
ag4
(F0.76505328258013772
F0.31861207964316546
tRp1165
ag4
(F0.33571442922841388
F1.8901183239570045
tRp1166
ag4
(F0.33571442922841427
F1.8901183239570043
tRp1167
ag4
(F1.3357144292284135
F1.8901183239570047
tRp1168
ag4
(F0.73382314964839035
F0.38982379930066119
tRp1169
ag4
(F-0.57083139200706112
F2.0566439159110637
tRp1170
asS'gLMzQbcdefffhhhqxti_122100'
p1171
(lp1172
g4
(F0.68491883696600808
F0.27099164196758729
tRp1173
ag4
(F-0.26240619185889169
F0.49947746842136903
tRp1174
ag4
(F0.35480893835910199
F0.53515118173198839
tRp1175
ag4
(F0.91821454007584224
F0.76160942923691144
tRp1176
ag4
(F0.69625299494884019
F1.0920268144275371
tRp1177
ag4
(F0.69625299494884041
F1.0920268144275371
tRp1178
asS'ivvPQQcfghghfghfahhhhaaaa_20000211'
p1179
(lp1180
g4
(F5.0500000000000002e-16
F0.99999999999999978
tRp1181
ag4
(F-3.8300000000000001e-16
F1.0000000000000002
tRp1182
ag4
(F5.0500000000000002e-16
F1.0000000000000002
tRp1183
ag4
(F-8.2700000000000003e-16
F1.0000000000000004
tRp1184
ag4
(F2.8300000000000001e-16
F1.0000000000000002
tRp1185
ag4
(F5.0500000000000002e-16
F0.99999999999999967
tRp1186
ag4
(F-6.0499999999999997e-16
F0.99999999999999978
tRp1187
ag4
(F-6.0499999999999997e-16
F0.99999999999999978
tRp1188
asS'hLALMkbcbefggghhwsemws_2112201'
p1189
(lp1190
g4
(F0.87798424776046502
F0.12686254638067654
tRp1191
ag4
(F5.8248909455382938
F4.1760198113778904
tRp1192
ag4
(F1.0339413569420413
F3.3897933796318167
tRp1193
ag4
(F0.71815338275870688
F0.64415564916823864
tRp1194
ag4
(F0.71815338275870677
F0.64415564916823864
tRp1195
ag4
(F0.71815338275870666
F0.64415564916823875
tRp1196
ag4
(F0.22835692214102099
F0.69213382499854592
tRp1197
asS'hLMzMkbcdefggghhhhxxvc_1221100'
p1198
(lp1199
g4
(F0.70579081282543688
F0.21641984757264324
tRp1200
ag4
(F-0.076849397742586631
F0.60664349888991009
tRp1201
ag4
(F-0.076849397742586659
F0.60664349888991032
tRp1202
ag4
(F1.6473716118814012
F0.7931242490264907
tRp1203
ag4
(F1.647371611881401
F0.79312424902649159
tRp1204
ag4
(F0.37472123205377239
F0.49271789001741212
tRp1205
ag4
(F0.37472123205377228
F0.49271789001741212
tRp1206
asS'iLLLPQccdgefhhghhrhajsvss_02221000'
p1207
(lp1208
g4
(F0.38034492670114178
F0.42893681329758931
tRp1209
ag4
(F0.76068985340228357
F0.85787362659517841
tRp1210
ag4
(F0.65084793681597697
F0.54075628827498068
tRp1211
ag4
(F0.76068985340228379
F0.85787362659517874
tRp1212
ag4
(F0.84270189386162442
F1.3051515265047442
tRp1213
ag4
(F0.4213509469308121
F0.6525757632523721
tRp1214
ag4
(F0.38034492670114201
F0.4289368132975892
tRp1215
ag4
(F0.42135094693081204
F0.65257576325237177
tRp1216
asS'iLLLMQccdgfhgfhhhshasssss_12220110'
p1217
(lp1218
g4
(F0.83525822952075135
F0.40112727877870547
tRp1219
ag4
(F0.10278471520029529
F0.66545695115281356
tRp1220
ag4
(F0.19332529356044956
F0.36692787717755626
tRp1221
ag4
(F0.10278471520029524
F0.66545695115281323
tRp1222
ag4
(F0.77330117424179978
F1.4677115087102222
tRp1223
ag4
(F0.56773174384120795
F0.13679760640459765
tRp1224
ag4
(F0.83525822952075135
F0.40112727877870547
tRp1225
ag4
(F0.77330117424179545
F1.4677115087102259
tRp1226
asS'gLPLQbcdfeffhrraarw_120011'
p1227
(lp1228
g4
(F0.49999999999999978
F1.3228756555322978
tRp1229
ag4
(F0.749999999999999
F0.66143782776614712
tRp1230
ag4
(F0.37500000000000006
F0.33071891388307362
tRp1231
ag4
(F0.37500000000000006
F0.33071891388307362
tRp1232
ag4
(F0.49999999999999789
F1.322875655532296
tRp1233
ag4
(F0.49999999999999989
F1.3228756555322938
tRp1234
asS'iLAvPQcbcbgfhfghxxnaaajjk_01100221'
p1235
(lp1236
g4
(F-0.88265534794636713
F2.453945956927118
tRp1237
ag4
(F1.1935438210077647
F0.18493526421823034
tRp1238
ag4
(F0.6558975098783244
F0.35593334225723655
tRp1239
ag4
(F-0.11190685249846898
F1.1845252514669107
tRp1240
ag4
(F-0.11190685249846795
F1.1845252514669082
tRp1241
ag4
(F0.68645865743908629
F1.2367836346897998
tRp1242
ag4
(F1.06641266083414
F1.1075128862205581
tRp1243
ag4
(F0.44372882906467093
F0.80260656765389438
tRp1244
asS'dLQbccchhfo_122'
p1245
(lp1246
g4
(F0.625
F0.33071891388307378
tRp1247
ag4
(F0.24999999999999989
F0.66143782776614723
tRp1248
ag4
(F0.24999999999999972
F0.66143782776614812
tRp1249
asS'iLLzMQccdfghfhghhshaswjcw_12220110'
p1250
(lp1251
g4
(F1.1841964029565726
F0.66505233002609176
tRp1252
ag4
(F0.59711214744078145
F0.7620451433319172
tRp1253
ag4
(F0.35802542039230262
F0.36053706033869565
tRp1254
ag4
(F0.59711214744078134
F0.76204514333191731
tRp1255
ag4
(F0.52612006730235839
F0.39111977782432134
tRp1256
ag4
(F0.54222182334887448
F1.0255893903647861
tRp1257
ag4
(F0.54222182334887492
F1.0255893903647872
tRp1258
ag4
(F0.52612006730235805
F0.39111977782432178
tRp1259
asS'iLMzMPcbcdefghhhhhhqxxqha_12210012'
p1260
(lp1261
g4
(F0.67607319478843597
F0.27987059996951374
tRp1262
ag4
(F-0.26273816944798711
F0.522729331397918
tRp1263
ag4
(F0.38152008741714449
F0.52383979616360998
tRp1264
ag4
(F0.94147643877084797
F0.79741122669443631
tRp1265
ag4
(F0.71256922891204655
F0.99885578755323257
tRp1266
ag4
(F0.71256922891204622
F0.99885578755323268
tRp1267
ag4
(F0.59358472280162022
F0.81206664512024784
tRp1268
ag4
(F0.41333502534044952
F0.80259993136743146
tRp1269
asS'iLLLQPccefgeghhhhdupmmadl_20102100'
p1270
(lp1271
g4
(F0.49999999999999967
F0.86602540378443915
tRp1272
ag4
(F0.49999999999999978
F0.86602540378443882
tRp1273
ag4
(F0.5
F0.86602540378443871
tRp1274
ag4
(F0.49999999999999956
F0.86602540378443893
tRp1275
ag4
(F0.5
F0.86602540378443882
tRp1276
ag4
(F0.50000000000000022
F0.86602540378443837
tRp1277
ag4
(F0.50000000000000044
F0.86602540378443871
tRp1278
ag4
(F0.50000000000000011
F0.8660254037844386
tRp1279
asS'iLMzMPcbcdefghhhhxqqxhhti_12002112'
p1280
(lp1281
g4
(F0.50000000000000011
F0.86602540378443926
tRp1282
ag4
(F0.4999999999999995
F0.86602540378443882
tRp1283
ag4
(F0.5
F0.86602540378443882
tRp1284
ag4
(F0.49999999999999911
F0.86602540378443826
tRp1285
ag4
(F0.50000000000000022
F0.86602540378443837
tRp1286
ag4
(F0.50000000000000022
F0.86602540378443771
tRp1287
ag4
(F0.49999999999999933
F0.86602540378443849
tRp1288
ag4
(F0.50000000000000155
F0.86602540378443882
tRp1289
asS'gLMzQbcdefffhhhhxxa_122110'
p1290
(lp1291
g4
(F0.73439122427034731
F0.17892274919649126
tRp1292
ag4
(F-0.17390519238996568
F0.51442612706834656
tRp1293
ag4
(F-0.17390519238996535
F0.51442612706834634
tRp1294
ag4
(F1.2948772561507289
F0.87227162546132964
tRp1295
ag4
(F1.2948772561507293
F0.87227162546132841
tRp1296
ag4
(F0.56048603188038149
F0.69334887626483743
tRp1297
asS'iLvLQQcbehfghgghhhhahbbgg_21112200'
p1298
(lp1299
g4
(F0.57864905306918801
F0.65257576325237199
tRp1300
ag4
(F0.69830412636804606
F1.0815125765499609
tRp1301
ag4
(F0.69830412636804606
F1.0815125765499609
tRp1302
ag4
(F0.69830412636804606
F1.0815125765499609
tRp1303
ag4
(F0.5786490530691879
F0.65257576325237199
tRp1304
ag4
(F0.5786490530691879
F0.65257576325237199
tRp1305
ag4
(F1.2393101465977154
F0.85787362659517863
tRp1306
ag4
(F1.2393101465977165
F0.85787362659517918
tRp1307
asS'iLMzMPcbcdefghhhhhhqxqxha_12210021'
p1308
(lp1309
g4
(F0.62620800743736649
F0.39985836989710077
tRp1310
ag4
(F-0.13438715068039356
F0.72435068142856296
tRp1311
ag4
(F0.49691865556420656
F0.33693209385909706
tRp1312
ag4
(F1.372236852737635
F0.9190375297697353
tRp1313
ag4
(F0.45075108450330748
F0.48773918428335533
tRp1314
ag4
(F0.45075108450330753
F0.48773918428335561
tRp1315
ag4
(F0.67336797890700784
F0.74661875258166388
tRp1316
ag4
(F0.49182085675697301
F1.1242090513256624
tRp1317
asS'iLvPAQcccgfehfghhraaaqswj_12220012'
p1318
(lp1319
g4
(F0.54623281167246374
F0.42781314063431192
tRp1320
ag4
(F0.51948864288430907
F0.47309723743542803
tRp1321
ag4
(F0.34789670825409219
F0.33642203033930068
tRp1322
ag4
(F0.51948864288430896
F0.47309723743542786
tRp1323
ag4
(F0.35961121549360425
F0.32797629518265103
tRp1324
ag4
(F0.76226000535815452
F0.74685385516096081
tRp1325
ag4
(F0.37522488935373233
F0.63470309213386022
tRp1326
ag4
(F0.73580033849185833
F0.38361110414272198
tRp1327
asS'iLMzMPcbcdefghhhhhqqqqhha_12200221'
p1328
(lp1329
g4
(F0.5
F0.50000000000000022
tRp1330
ag4
(F0.49999999999999989
F0.49999999999999978
tRp1331
ag4
(F0.50000000000000011
F0.50000000000000011
tRp1332
ag4
(F0.50000000000000011
F0.49999999999999972
tRp1333
ag4
(F0.49999999999999994
F0.50000000000000011
tRp1334
ag4
(F0.49999999999999972
F0.5
tRp1335
ag4
(F0.50000000000000011
F0.49999999999999994
tRp1336
ag4
(F0.50000000000000011
F0.50000000000000011
tRp1337
asS'ivvPQQcfhghgfghfaaaaaaaaa_01122000'
p1338
(lp1339
g4
(F-6.0499999999999997e-16
F0.99999999999999967
tRp1340
ag4
(F0.50000000000000011
F0.50000000000000011
tRp1341
ag4
(F0.50000000000000011
F0.49999999999999989
tRp1342
ag4
(F0.99999999999999978
F1.0000000000000002
tRp1343
ag4
(F1.0000000000000002
F1.0000000000000002
tRp1344
ag4
(F7.2699999999999998e-16
F1.0000000000000007
tRp1345
ag4
(F6.1000000000000005e-17
F1.0000000000000002
tRp1346
ag4
(F6.1000000000000005e-17
F1.0000000000000002
tRp1347
asS'dLQbccchhsj_122'
p1348
(lp1349
g4
(F0.62500000000000011
F0.33071891388307378
tRp1350
ag4
(F0.24999999999999992
F0.6614378277661479
tRp1351
ag4
(F0.24999999999999992
F0.66143782776614735
tRp1352
asS'iLLLAQcbdfggghhhxnqahvhei_10222011'
p1353
(lp1354
g4
(F0.66920877911436538
F0.75423205713319552
tRp1355
ag4
(F0.48768490253278535
F1.1119629665059168
tRp1356
ag4
(F0.33046225331898993
F0.5447941678036845
tRp1357
ag4
(F0.33046225331899021
F0.54479416780368473
tRp1358
ag4
(F0.33046225331899071
F0.54479416780368461
tRp1359
ag4
(F0.44277643541690959
F0.26627955157566313
tRp1360
ag4
(F0.66920877911436571
F0.75423205713319552
tRp1361
ag4
(F-0.65861345938079108
F0.99746692207190868
tRp1362
asS'gLMzQbcdefffhhqqqdl_122002'
p1363
(lp1364
g4
(F0.52651571512692119
F0.46792810837426346
tRp1365
ag4
(F0.49999999999999989
F0.43948160670099429
tRp1366
ag4
(F0.42459347587190172
F0.64363171482335579
tRp1367
ag4
(F0.47348428487307881
F0.46792810837426341
tRp1368
ag4
(F0.60116867738806068
F0.79912215669914288
tRp1369
ag4
(F0.57540652412809823
F0.6436317148233559
tRp1370
asS'iLLvQQcbefhghhgghhqaqbgvc_21112002'
p1371
(lp1372
g4
(F0.96525970185002519
F0.7689481626950484
tRp1373
ag4
(F1.7442841538189482
F1.5831377724456719
tRp1374
ag4
(F1.0586345857838815
F1.2978287294559054
tRp1375
ag4
(F1.0586345857838815
F1.2978287294559054
tRp1376
ag4
(F0.68564956803506694
F0.28530904298976684
tRp1377
ag4
(F0.96525970185002463
F0.76894816269504895
tRp1378
ag4
(F0.96525970185002596
F0.76894816269504795
tRp1379
ag4
(F0.96525970185002563
F0.76894816269504873
tRp1380
asS'gLMzQbcdefffhhqqqum_122002'
p1381
(lp1382
g4
(F0.52651571512692141
F0.46792810837426368
tRp1383
ag4
(F0.49999999999999939
F0.43948160670099412
tRp1384
ag4
(F0.42459347587190244
F0.64363171482335579
tRp1385
ag4
(F0.47348428487307881
F0.46792810837426352
tRp1386
ag4
(F0.60116867738806101
F0.79912215669914299
tRp1387
ag4
(F0.57540652412809923
F0.64363171482335602
tRp1388
asS'iLMzMPcbcdefghhhhhqqqxhpi_12200211'
p1389
(lp1390
g4
(F0.53213689538483733
F0.46270002278141881
tRp1391
ag4
(F0.50000000000000011
F0.42777002669900077
tRp1392
ag4
(F0.40200936400393156
F0.67298045127997896
tRp1393
ag4
(F0.4678631046151624
F0.46270002278141864
tRp1394
ag4
(F0.60820159965899867
F0.88339186144111304
tRp1395
ag4
(F0.59799063599606861
F0.67298045127997863
tRp1396
ag4
(F0.57514518334407927
F0.90526150076332279
tRp1397
ag4
(F0.39179840034100194
F0.88339186144111215
tRp1398
asS'ivvPQQcfhgfghgfhaaaxhqhxq_01122000'
p1399
(lp1400
g4
(F6.1000000000000005e-17
F1
tRp1401
ag4
(F0.50000000000000011
F0.50000000000000022
tRp1402
ag4
(F0.50000000000000011
F0.50000000000000011
tRp1403
ag4
(F1.0000000000000004
F1.0000000000000002
tRp1404
ag4
(F1.0000000000000004
F0.99999999999999978
tRp1405
ag4
(F-8.2700000000000003e-16
F1.0000000000000004
tRp1406
ag4
(F-8.2700000000000003e-16
F1.0000000000000002
tRp1407
ag4
(F7.2699999999999998e-16
F1.0000000000000002
tRp1408
asS'eLMkbcdddhxqlm_1200'
p1409
(lp1410
g4
(F0.5
F0.86602540378443871
tRp1411
ag4
(F0.5
F0.86602540378443882
tRp1412
ag4
(F0.49999999999999978
F0.86602540378443849
tRp1413
ag4
(F0.5
F0.86602540378443893
tRp1414
asS'eLMkbcdddhhhml_1221'
p1415
(lp1416
g4
(F0.72715486863806478
F0.22844212345723058
tRp1417
ag4
(F-0.25168668052563298
F0.39322842428045529
tRp1418
ag4
(F0.20372326785245817
F0.56066772800511611
tRp1419
ag4
(F0.83959572798244442
F0.59116913787140124
tRp1420
asS'iLLALQcbcdeghhghtsjajelvu_20102121'
p1421
(lp1422
g4
(F0.84090180211064158
F0.79435510461903469
tRp1423
ag4
(F0.3715777392220484
F0.59363700904462902
tRp1424
ag4
(F0.076115808558608042
F1.3359492779798663
tRp1425
ag4
(F0.094972675595921222
F1.0479850454433197
tRp1426
ag4
(F0.47202059454092882
F0.54658076157631663
tRp1427
ag4
(F0.50794147199613027
F0.6456798447284261
tRp1428
ag4
(F-0.15889792291492894
F0.65593514153917909
tRp1429
ag4
(F0.50794147199613005
F0.6456798447284261
tRp1430
asS'fLLQcacdedejkaajk_20021'
p1431
(lp1432
g4
(F0.10326384451785732
F0.38585976281410983
tRp1433
ag4
(F0.24621426485374587
F1.3482264411150595
tRp1434
ag4
(F0.24621426485374578
F1.3482264411150591
tRp1435
ag4
(F-0.77740811217842287
F1.0826303117463114
tRp1436
ag4
(F0.93797113833611523
F1.5542594038893138
tRp1437
asS'iLLMMPcaedfdghhhjxaxjxxnk_20021100'
p1438
(lp1439
g4
(F0.27305293280289705
F0.63984130544587015
tRp1440
ag4
(F-0.56421164260027745
F1.3221096372903995
tRp1441
ag4
(F-0.56421164260027745
F1.3221096372903995
tRp1442
ag4
(F0.27305293280289727
F0.6398413054458697
tRp1443
ag4
(F-0.55905675930886967
F1.5015998905120986
tRp1444
ag4
(F-0.55905675930886967
F1.5015998905120986
tRp1445
ag4
(F0.24344425612270584
F0.1189895340820192
tRp1446
ag4
(F0.2434442561227059
F0.11898953408201922
tRp1447
asS'iLMzMPcbcdefghhhhhhhhhhdu_12211221'
p1448
(lp1449
g4
(F0.89393889151373129
F0.047383429590085631
tRp1450
ag4
(F-0.11551060968552032
F0.059127887748035721
tRp1451
ag4
(F-0.13546019692206362
F0.094492881985650728
tRp1452
ag4
(F0.87464279647410315
F0.072787684474420855
tRp1453
ag4
(F0.83606425941316542
F0.16813148039022208
tRp1454
ag4
(F-0.14959007443513311
F0.23118113097233647
tRp1455
ag4
(F0.18826840644334195
F0.4465206976743073
tRp1456
ag4
(F0.94575565506620851
F0.52024521194161
tRp1457
asS'iLLALQcbcdefghhhtsfxjoxqt_20102120'
p1458
(lp1459
g4
(F0.7606898534022839
F0.85787362659517874
tRp1460
ag4
(F0.42135094693081226
F0.65257576325237243
tRp1461
ag4
(F-0.15729810613837644
F1.3051515265047442
tRp1462
ag4
(F0.091020400166547888
F0.75522469492377531
tRp1463
ag4
(F0.65084793681597664
F0.54075628827498035
tRp1464
ag4
(F-0.15729810613837578
F1.3051515265047435
tRp1465
ag4
(F0.76068985340228357
F0.85787362659517841
tRp1466
ag4
(F0.4213509469308121
F0.65257576325237199
tRp1467
asS'hLLPMkccdfeggghwraahqx_2010221'
p1468
(lp1469
g4
(F0.18831172373652233
F0.64437528668977651
tRp1470
ag4
(F1.2414737753861729
F1.1545518661002712
tRp1471
ag4
(F0.75572152894895783
F0.59994494329255177
tRp1472
ag4
(F1.2414737753861733
F1.1545518661002705
tRp1473
ag4
(F0.55316205164965115
F0.51017657941049366
tRp1474
ag4
(F0.55316205164965071
F0.51017657941049377
tRp1475
ag4
(F-0.028495507125570176
F1.1092138456154377
tRp1476
asS'hLLLQkcegfeegghqhaqawr_2010222'
p1477
(lp1478
g4
(F0.28326786340873589
F0.37340342189805542
tRp1479
ag4
(F0.7104892134774009
F1.6998318639739556
tRp1480
ag4
(F-0.39580764687625664
F0.89764643539462929
tRp1481
ag4
(F0.71048921347739868
F1.6998318639739562
tRp1482
ag4
(F0.28326786340873578
F0.37340342189805514
tRp1483
ag4
(F0.28326786340873583
F0.37340342189805503
tRp1484
ag4
(F1.4112574303076255
F0.9326847756951181
tRp1485
asS'ivLLQQcceefghghhbkgqqhcvc_21111000'
p1486
(lp1487
g4
(F0.45814670701628768
F0.84555390322614854
tRp1488
ag4
(F1.0014792788106437
F0.73451198180764898
tRp1489
ag4
(F0.66030349027424307
F0.69100357220098108
tRp1490
ag4
(F1.0014792788106444
F0.73451198180764787
tRp1491
ag4
(F0.6603034902742424
F0.69100357220098196
tRp1492
ag4
(F0.99725810698257011
F1.3614426568165008
tRp1493
ag4
(F0.99725810698257311
F1.3614426568165008
tRp1494
ag4
(F1.5046311853430987
F0.9142508902825357
tRp1495
asS'iLMzMPcbcdefghhhhhqqxxhha_12200112'
p1496
(lp1497
g4
(F0.55567854428780628
F0.4121395498006275
tRp1498
ag4
(F0.41952065336012018
F0.59571819121127245
tRp1499
ag4
(F0.41952065336012068
F0.59571819121127212
tRp1500
ag4
(F0.6163271295690167
F0.78749023445196809
tRp1501
ag4
(F0.6163271295690167
F0.78749023445196809
tRp1502
ag4
(F0.79023967331993927
F1.1221381952068905
tRp1503
ag4
(F0.79023967331993994
F1.1221381952068905
tRp1504
ag4
(F1.1609586932797591
F0.86106796475054082
tRp1505
asS'hLLLQkcegfeegghqhaxhbg_1222011'
p1506
(lp1507
g4
(F0.75707474270088193
F0.37643952290254584
tRp1508
ag4
(F0.19070982283287563
F0.45289959452261924
tRp1509
ag4
(F0.21795439419506277
F0.30193338849862655
tRp1510
ag4
(F0.19070982283287574
F0.45289959452261952
tRp1511
ag4
(F0.75707474270088204
F0.37643952290254595
tRp1512
ag4
(F0.75707474270088193
F0.37643952290254573
tRp1513
ag4
(F1.1128217408819521
F0.42963995517063891
tRp1514
asS'iLMzMPcbcdefghhhhhhhhhqxh_12211220'
p1515
(lp1516
g4
(F0.83897907899376889
F0.078889868935426447
tRp1517
ag4
(F-0.19961587320519589
F0.16282009115765037
tRp1518
ag4
(F-0.19961587320519608
F0.16282009115765037
tRp1519
ag4
(F0.7737118972930298
F0.29282598984478631
tRp1520
ag4
(F0.77371189729302925
F0.29282598984478642
tRp1521
ag4
(F0.4783422847823412
F0.32059982902850293
tRp1522
ag4
(F0.47834228478234209
F0.32059982902850309
tRp1523
ag4
(F0.55243830887017464
F0.77624591003093912
tRp1524
asS'iLAwLQccbbdfhgghhhrhjaajw_12212201'
p1525
(lp1526
g4
(F1.0791005463921184
F0.078212529812901443
tRp1527
ag4
(F0.073130042425983588
F0.049991571616839425
tRp1528
ag4
(F0.080127981329091616
F0.11442060870077636
tRp1529
ag4
(F0.97566813962501997
F0.21953845457615354
tRp1530
ag4
(F0.21346757194413588
F0.55109488230575177
tRp1531
ag4
(F0.21346757194413588
F0.55109488230575088
tRp1532
ag4
(F0.045693494805217012
F0.53189935793209342
tRp1533
ag4
(F0.33448660327967333
F0.24246585607505614
tRp1534
asS'hvLPQkcdegffggbbgaaahg_1020211'
p1535
(lp1536
g4
(F0.80669309503240527
F1.0703121758096934
tRp1537
ag4
(F0.4644031548043861
F0.41653689340301475
tRp1538
ag4
(F0.55091952418513956
F0.59583539780236627
tRp1539
ag4
(F0.46440315480438632
F0.41653689340301508
tRp1540
ag4
(F0.45426607170134242
F1.1309914857072134
tRp1541
ag4
(F0.80669309503240538
F1.0703121758096938
tRp1542
ag4
(F0.80669309503240572
F1.0703121758096932
tRp1543
asS'gLLAQcdcefffhfrtxjo_201021'
p1544
(lp1545
g4
(F0.46010019389501727
F0.75526721721576473
tRp1546
ag4
(F0.82603700646248013
F0.91303312560491301
tRp1547
ag4
(F0.62639174670426334
F0.87626101374864895
tRp1548
ag4
(F0.15655697638671615
F1.0788289575547747
tRp1549
ag4
(F0.44977197896100701
F0.5752931989657748
tRp1550
ag4
(F-0.13173960521831937
F0.90781327186141547
tRp1551
asS'iLMzMPcbcdefghhhhhhqxqqtp_12210022'
p1552
(lp1553
g4
(F0.6559792624013705
F0.43670824982352019
tRp1554
ag4
(F-0.22886142231253265
F0.65385329624605859
tRp1555
ag4
(F0.50000000000000011
F0.24303160979968624
tRp1556
ag4
(F0.99468910259463617
F0.86321621215986821
tRp1557
ag4
(F0.34402073759862928
F0.4367082498235198
tRp1558
ag4
(F0.62741478271655915
F0.77868523193183292
tRp1559
ag4
(F1.2288614223125327
F0.65385329624605837
tRp1560
ag4
(F0.57345702495519058
F0.4976604243748512
tRp1561
asS'fLLQcbeddeehhbghh_01110'
p1562
(lp1563
g4
(F1.9999999999999987
F1.9999999999999991
tRp1564
ag4
(F0.80000000000000004
F0.40000000000000008
tRp1565
ag4
(F0.79999999999999993
F0.3999999999999998
tRp1566
ag4
(F0.79999999999999993
F0.3999999999999998
tRp1567
ag4
(F2.0000000000000013
F2.0000000000000009
tRp1568
asS'gLLAQacdefefnsaaxjk_100120'
p1569
(lp1570
g4
(F-0.37962378720024192
F0.5153749924633676
tRp1571
ag4
(F0.12768958136002978
F0.63860660457415741
tRp1572
ag4
(F0.1276895813600305
F0.63860660457415885
tRp1573
ag4
(F0.87619654056895491
F3.5777799881318333
tRp1574
ag4
(F0.22886756498176689
F0.46754345948900644
tRp1575
ag4
(F-0.10210154677081758
F0.21897306357429749
tRp1576
asS'fLMPcbcdeeehhhqrb_12210'
p1577
(lp1578
g4
(F0.64492100667946073
F0.35232479362070951
tRp1579
ag4
(F-0.1941746186057981
F0.65238582972145698
tRp1580
ag4
(F0.468355675668017
F0.40338405739035599
tRp1581
ag4
(F1.1937288697048485
F0.90573936906143904
tRp1582
ag4
(F0.54832078020097463
F0.61596614196108401
tRp1583
asS'gvLQQcdeffeffffaafa_201102'
p1584
(lp1585
g4
(F0.75
F0.66143782776614801
tRp1586
ag4
(F0.24999999999999992
F0.6614378277661479
tRp1587
ag4
(F-0.49999999999999939
F1.3228756555322949
tRp1588
ag4
(F-0.50000000000000067
F1.3228756555322954
tRp1589
ag4
(F0.24999999999999992
F0.6614378277661479
tRp1590
ag4
(F0.74999999999999989
F0.66143782776614746
tRp1591
asS'hvLPQkcdegffggfsshqqho_0221100'
p1592
(lp1593
g4
(F0.22815549365396223
F1.1151425080399369
tRp1594
ag4
(F0.82389943563052148
F0.8607166186235683
tRp1595
ag4
(F0.41964337760708026
F0.60629072920719917
tRp1596
ag4
(F0.40425605802344056
F0.2544258894163689
tRp1597
ag4
(F0.80851211604688156
F0.50885177883273813
tRp1598
ag4
(F0.22815549365396193
F1.115142508039938
tRp1599
ag4
(F0.22815549365396201
F1.1151425080399371
tRp1600
asS'hLvMQkbfegfegghtuhuirw_1200002'
p1601
(lp1602
g4
(F0.74412836513460878
F0.86158127123450501
tRp1603
ag4
(F0.42584872429757015
F0.66477506997213798
tRp1604
ag4
(F0.56617534826313676
F0.99343219028200802
tRp1605
ag4
(F0.56617534826313709
F0.99343219028200724
tRp1606
ag4
(F0.56617534826313665
F0.99343219028200758
tRp1607
ag4
(F0.56617534826313687
F0.99343219028200647
tRp1608
ag4
(F-0.25587163486539127
F0.86158127123450445
tRp1609
asS'dLQacccjsnk_200'
p1610
(lp1611
g4
(F0.12256116687665373
F0.74486176661974379
tRp1612
ag4
(F0.78492014549902733
F1.3071412786820455
tRp1613
ag4
(F0.78492014549902633
F1.3071412786820449
tRp1614
asS'iLMzMPcbcdefghhhhhhhhxqdu_12211200'
p1615
(lp1616
g4
(F0.80979747097656907
F0.1068683968239716
tRp1617
ag4
(F-0.21373832738156642
F0.16017618461397995
tRp1618
ag4
(F-0.19837468084524432
F0.35760053430706612
tRp1619
ag4
(F0.76623401014405568
F0.22864776418548599
tRp1620
ag4
(F1.0352021539168035
F0.76570896416631917
tRp1621
ag4
(F0.37561456443067875
F0.46183977042685309
tRp1622
ag4
(F0.7333666712865885
F1.2087940247746176
tRp1623
ag4
(F0.73336667128658906
F1.2087940247746165
tRp1624
asS'iLvLQQcbehfgghhghhhahrrww_21112200'
p1625
(lp1626
g4
(F0.84869563336895304
F0.55451561049051601
tRp1627
ag4
(F0.45796992530269232
F1.6784146972755538
tRp1628
ag4
(F0.7778570120332986
F1.0112207341472006
tRp1629
ag4
(F0.77785701203329827
F1.0112207341471999
tRp1630
ag4
(F0.52209191544838063
F0.62128457626410527
tRp1631
ag4
(F0.52209191544838085
F0.62128457626410494
tRp1632
ag4
(F1.4349732574091982
F0.35151866679581001
tRp1633
ag4
(F0.26149234919081016
F1.495745565006956
tRp1634
asS'iLLLMQcbdegfhhghxniannrwn_10222011'
p1635
(lp1636
g4
(F0.84580601508257991
F0.83280428766959125
tRp1637
ag4
(F0.21495281184921819
F1.1609637266365249
tRp1638
ag4
(F0.40856950621985461
F0.93443636817927311
tRp1639
ag4
(F0.25598629280217072
F0.64041598217845686
tRp1640
ag4
(F0.40856950621985533
F0.934436368179273
tRp1641
ag4
(F0.49860670647019534
F0.29227445806231572
tRp1642
ag4
(F0.51946446230445931
F1.0025497326410946
tRp1643
ag4
(F0.51946446230445931
F1.0025497326410939
tRp1644
asS'ivLAAQcecefghhghfbbaaafbb_12222010'
p1645
(lp1646
g4
(F0.49999999999999994
F0.50000000000000011
tRp1647
ag4
(F0.50000000000000011
F0.49999999999999994
tRp1648
ag4
(F-1.61e-16
F1.0000000000000002
tRp1649
ag4
(F0.49999999999999994
F0.50000000000000011
tRp1650
ag4
(F0.50000000000000022
F0.50000000000000033
tRp1651
ag4
(F0.49999999999999978
F0.50000000000000033
tRp1652
ag4
(F1.0000000000000002
F1.0000000000000007
tRp1653
ag4
(F0.5
F0.49999999999999989
tRp1654
asS'iLLLQPcbeefeghhhhhhhhhqaq_12001110'
p1655
(lp1656
g4
(F0.63397459621555996
F1.8968595655328064
tRp1657
ag4
(F-0.36602540378443915
F1.896859565532808
tRp1658
ag4
(F0.25000000000000017
F0.34714939419826057
tRp1659
ag4
(F0.25000000000000017
F0.34714939419826063
tRp1660
ag4
(F0.63397459621556107
F1.89685956553281
tRp1661
ag4
(F1.8660254037844397
F2.5911583539293304
tRp1662
ag4
(F1.8660254037844397
F2.5911583539293295
tRp1663
ag4
(F-0.18301270189222002
F0.25413099436988285
tRp1664
asS'gLLAQcdecfffhsermws_122201'
p1665
(lp1666
g4
(F1.0153451008161227
F0.34342644336067979
tRp1667
ag4
(F0.3066618969667293
F0.64102225200861207
tRp1668
ag4
(F0.16252978222775091
F0.16839642442718097
tRp1669
ag4
(F0.30666189696672969
F0.64102225200861207
tRp1670
ag4
(F0.77760981502425053
F0.71893523899828982
tRp1671
ag4
(F0.30666189696672969
F0.64102225200861207
tRp1672
asS'ivLAMQcecfgfhghhccaxuquvk_01111002'
p1673
(lp1674
g4
(F0.63428760560099051
F2.1194857044736524
tRp1675
ag4
(F0.55907977593668867
F0.3123666552094444
tRp1676
ag4
(F0.87040915971251309
F0.43303058580154669
tRp1677
ag4
(F0.84444816025323288
F0.78771656558347258
tRp1678
ag4
(F1.0145199772496285
F0.86777169873613191
tRp1679
ag4
(F-0.019276731432453478
F1.1520542831187033
tRp1680
ag4
(F0.24128019966121222
F1.2218461095017314
tRp1681
ag4
(F1.0637714141114274
F1.7693262031161696
tRp1682
asS'iLLAPPccecdfghhhhqrwffhxq_20102221'
p1683
(lp1684
g4
(F0.25099682162920062
F0.51274413575132383
tRp1685
ag4
(F0.53059164145522253
F1.9826779068361065
tRp1686
ag4
(F0.90908118414925998
F0.62232852884322865
tRp1687
ag4
(F1.6193265030311945
F1.0751567825181145
tRp1688
ag4
(F0.099745961646286893
F0.72152768189035754
tRp1689
ag4
(F0.34039698164092158
F0.58129220481616883
tRp1690
ag4
(F0.34039698164092219
F0.5812922048161685
tRp1691
ag4
(F-0.14667161467927264
F0.75201769053348022
tRp1692
asS'hLALPkbcbegffghhwsaasw_2112201'
p1693
(lp1694
g4
(F0.90357694619414497
F0.12861251846883612
tRp1695
ag4
(F5.6335997885613427
F5.0657918604718173
tRp1696
ag4
(F0.70080382638220806
F4.1970703598836652
tRp1697
ag4
(F0.77322679704547348
F0.54767655448754882
tRp1698
ag4
(F0.77322679704547392
F0.54767655448754915
tRp1699
ag4
(F0.16648403293329475
F1.8169295544487289
tRp1700
ag4
(F-0.34540380489100997
F0.49120495847467177
tRp1701
asS'iLLzPQccdegfhhghhsahfssoj_10001212'
p1702
(lp1703
g4
(F-4.55e-16
F2.8284271247461903
tRp1704
ag4
(F4.3000000000000002e-17
F0.70710678118654746
tRp1705
ag4
(F0.16666666666666663
F0.23570226039551581
tRp1706
ag4
(F4.3000000000000002e-17
F0.70710678118654735
tRp1707
ag4
(F-0.99999999999999978
F1.4142135623730947
tRp1708
ag4
(F1.0000000000000004
F0.70710678118654746
tRp1709
ag4
(F-1.0000000000000013
F1.4142135623730945
tRp1710
ag4
(F1
F0.70710678118654735
tRp1711
asS'iLMzMPcbcdefghhhhhqqqqhxq_12200221'
p1712
(lp1713
g4
(F0.49999999999999989
F0.50000000000000022
tRp1714
ag4
(F0.50000000000000022
F0.50000000000000022
tRp1715
ag4
(F0.5
F0.49999999999999978
tRp1716
ag4
(F0.49999999999999972
F0.5
tRp1717
ag4
(F0.50000000000000011
F0.4999999999999995
tRp1718
ag4
(F0.50000000000000022
F0.49999999999999967
tRp1719
ag4
(F0.49999999999999961
F0.50000000000000022
tRp1720
ag4
(F0.50000000000000011
F0.50000000000000033
tRp1721
asS'iLvLQQcbehfgghhghuhuagrwg_12000012'
p1722
(lp1723
g4
(F0.5386009024559828
F1.0876450950053327
tRp1724
ag4
(F0.63436663527996151
F0.73835623723364652
tRp1725
ag4
(F0.40754854099062915
F0.92349668667424667
tRp1726
ag4
(F0.40754854099062926
F0.92349668667424678
tRp1727
ag4
(F0.40754854099063015
F0.92349668667424722
tRp1728
ag4
(F0.40754854099062943
F0.92349668667424722
tRp1729
ag4
(F-0.11928340906070584
F0.6554726096620499
tRp1730
ag4
(F0.26930045122799179
F0.54382254750266668
tRp1731
asS'iLwAPMcacedfgghhnnxxaakxk_10022001'
p1732
(lp1733
g4
(F0.45796992530269315
F1.6784146972755527
tRp1734
ag4
(F0.20723939190986648
F0.94337783042122225
tRp1735
ag4
(F0.20723939190986648
F0.94337783042122036
tRp1736
ag4
(F0.26539740531440631
F0.53752590312154092
tRp1737
ag4
(F-1.3907257080662605
F1.1238990867850385
tRp1738
ag4
(F0.20723939190986598
F0.94337783042122103
tRp1739
ag4
(F0.20723939190986601
F0.94337783042121925
tRp1740
ag4
(F0.45796992530269115
F1.6784146972755543
tRp1741
asS'hLLMMkaedfdgggjxaxjxqh_2002110'
p1742
(lp1743
g4
(F0.25000000000000006
F0.66143782776614801
tRp1744
ag4
(F-0.49999999999999978
F1.3228756555322949
tRp1745
ag4
(F-0.49999999999999978
F1.3228756555322949
tRp1746
ag4
(F0.25000000000000011
F0.66143782776614757
tRp1747
ag4
(F-0.50000000000000033
F1.3228756555322958
tRp1748
ag4
(F-0.50000000000000033
F1.3228756555322958
tRp1749
ag4
(F0.31249999999999983
F0.16535945694153689
tRp1750
asS'iLLwQPcbeefgehhhxxxaaxxxa_10221110'
p1751
(lp1752
g4
(F1.0000000000000004
F0.99999999999999956
tRp1753
ag4
(F0.50000000000000011
F0.50000000000000022
tRp1754
ag4
(F-6.0499999999999997e-16
F0.99999999999999878
tRp1755
ag4
(F5.0500000000000002e-16
F1.0000000000000009
tRp1756
ag4
(F0.99999999999999911
F1.0000000000000004
tRp1757
ag4
(F1.0000000000000007
F0.99999999999999933
tRp1758
ag4
(F0.99999999999999889
F1.0000000000000002
tRp1759
ag4
(F0.50000000000000022
F0.50000000000000011
tRp1760
asS'iLLLQMcbdeggfghhenaipnnhw_01120221'
p1761
(lp1762
g4
(F0.26242148321169328
F0.72010873606448089
tRp1763
ag4
(F0.55326553990311855
F1.2258805318820007
tRp1764
ag4
(F-0.13915439383591577
F1.8219687895510739
tRp1765
ag4
(F1.1046891753912425
F0.72202566604733498
tRp1766
ag4
(F0.24671744438674828
F0.39460101803830216
tRp1767
ag4
(F1.1506253872655421
F0.36165422945110359
tRp1768
ag4
(F1.3657259972902684
F0.41456195956732239
tRp1769
ag4
(F0.90615864562589599
F2.690177529391665
tRp1770
asS'iLLLMQccegfhhhgghqhaqfowr_20102222'
p1771
(lp1772
g4
(F0.23434945163198184
F0.39550447780803244
tRp1773
ag4
(F0.89114404361724686
F1.8713826422013122
tRp1774
ag4
(F-0.44950037556444439
F0.83007147525975944
tRp1775
ag4
(F0.89114404361724853
F1.8713826422013093
tRp1776
ag4
(F0.23218401126292373
F0.26421910403139359
tRp1777
ag4
(F0.23434945163198209
F0.39550447780803216
tRp1778
ag4
(F1.5044505573110751
F0.93154542479971503
tRp1779
ag4
(F0.23218401126292376
F0.26421910403139381
tRp1780
asS'iLLAzQcbcdefhghhtsjajqjqt_20102120'
p1781
(lp1782
g4
(F0.76068985340228379
F0.85787362659517841
tRp1783
ag4
(F0.42135094693081193
F0.65257576325237188
tRp1784
ag4
(F-0.15729810613837614
F1.305151526504744
tRp1785
ag4
(F0.09102040016654793
F0.75522469492377575
tRp1786
ag4
(F0.65084793681597719
F0.54075628827498046
tRp1787
ag4
(F-0.15729810613837672
F1.305151526504744
tRp1788
ag4
(F0.76068985340228401
F0.85787362659517874
tRp1789
ag4
(F0.42135094693081199
F0.65257576325237188
tRp1790
asS'eLPkbcdddhrrcv_1200'
p1791
(lp1792
g4
(F0.35220112873895765
F1.7214332372471368
tRp1793
ag4
(F0.8859222531730192
F0.55757125401996888
tRp1794
ag4
(F0.29017831119645976
F0.30314536460359953
tRp1795
ag4
(F0.29017831119645954
F0.30314536460359975
tRp1796
asS'iLMzMPcbcdefghhhhhhhxxqhx_12211002'
p1797
(lp1798
g4
(F0.78096771155348144
F0.13341619572612312
tRp1799
ag4
(F-0.22606927025874868
F0.34477057643374714
tRp1800
ag4
(F-0.22606927025874859
F0.34477057643374698
tRp1801
ag4
(F0.90944960057952162
F0.65653870691800853
tRp1802
ag4
(F0.90944960057952118
F0.65653870691800797
tRp1803
ag4
(F0.62951247644505282
F1.5006232118347003
tRp1804
ag4
(F0.62951247644505193
F1.5006232118346998
tRp1805
ag4
(F-0.23771729488309259
F0.56666722885397802
tRp1806
asS'eLMkbcdddhxqdu_1200'
p1807
(lp1808
g4
(F0.50000000000000022
F0.86602540378443882
tRp1809
ag4
(F0.50000000000000033
F0.86602540378443849
tRp1810
ag4
(F0.49999999999999989
F0.86602540378443815
tRp1811
ag4
(F0.5
F0.86602540378443849
tRp1812
asS'fLLQcbeddeehhcvxx_12001'
p1813
(lp1814
g4
(F1.120972063760763
F1.3866977525296742
tRp1815
ag4
(F0.12097206376076405
F1.3866977525296753
tRp1816
ag4
(F0.32609480761003434
F0.51442612706834612
tRp1817
ag4
(F0.32609480761003423
F0.51442612706834623
tRp1818
ag4
(F1.1209720637607643
F1.3866977525296762
tRp1819
asS'iLLLAQcccgeghghhlntiaqgqa_12001112'
p1820
(lp1821
g4
(F0.3382041689415779
F0.4610106231581047
tRp1822
ag4
(F-0.09814873477516084
F0.31183142935685138
tRp1823
ag4
(F1.0173577801508216
F0.70869703644396731
tRp1824
ag4
(F-0.034539218113316478
F1.4101942359743798
tRp1825
ag4
(F1.0414775366833904
F0.26745751396922385
tRp1826
ag4
(F1.0414775366833904
F0.26745751396922374
tRp1827
ag4
(F1.0173577801508216
F0.70869703644396698
tRp1828
ag4
(F0.12885189580453088
F0.18332496278705843
tRp1829
asS'eLMkbcdddhhqxh_1220'
p1830
(lp1831
g4
(F0.49999999999999994
F0.50000000000000011
tRp1832
ag4
(F0.50000000000000011
F0.50000000000000011
tRp1833
ag4
(F0.50000000000000011
F0.49999999999999994
tRp1834
ag4
(F0.49999999999999989
F0.49999999999999989
tRp1835
asS'iLLAzQccedegghhhiinahomtu_01122000'
p1836
(lp1837
g4
(F0.43112697955882601
F1.0164506696706312
tRp1838
ag4
(F0.6463396460257782
F0.83381073483479384
tRp1839
ag4
(F0.43112697955882601
F1.0164506696706312
tRp1840
ag4
(F0.71591452453788551
F0.48404815678625668
tRp1841
ag4
(F0.64633964602577787
F0.83381073483479429
tRp1842
ag4
(F0.48634169570912061
F0.4534359054737655
tRp1843
ag4
(F0.14688058497118622
F0.42197832080906439
tRp1844
ag4
(F0.48634169570912145
F0.45343590547376478
tRp1845
asS'gLLPQccdeffflncxqnw_120011'
p1846
(lp1847
g4
(F0.68301270189221863
F0.94842978276640377
tRp1848
ag4
(F-0.43301270189222063
F1.2955791769646643
tRp1849
ag4
(F0.31698729810778026
F0.94842978276640311
tRp1850
ag4
(F0.23205080756887719
F0.69429878839652137
tRp1851
ag4
(F0.6830127018922203
F0.94842978276640444
tRp1852
ag4
(F0.68301270189221952
F0.94842978276640288
tRp1853
asS'iLLvQQcbeghfhhgghhaaabgbg_12001111'
p1854
(lp1855
g4
(F0.9789706182161465
F1.2252941296249102
tRp1856
ag4
(F-0.37348176425860574
F0.70138506592917571
tRp1857
ag4
(F0.40137221348938523
F0.48166979888852146
tRp1858
ag4
(F0.40137221348938518
F0.48166979888852146
tRp1859
ag4
(F0.57748306001305727
F0.29489870536350121
tRp1860
ag4
(F0.97897061821614706
F1.2252941296249105
tRp1861
ag4
(F0.97897061821614695
F1.22529412962491
tRp1862
ag4
(F0.97897061821614739
F1.2252941296249102
tRp1863
asS'iLLLQPcbeegefhhhhhhahahha_01110221'
p1864
(lp1865
g4
(F1
F0.99999999999999956
tRp1866
ag4
(F0.99999999999999978
F1
tRp1867
ag4
(F0.99999999999999956
F1
tRp1868
ag4
(F0.99999999999999956
F1
tRp1869
ag4
(F1.0000000000000002
F1.0000000000000007
tRp1870
ag4
(F1
F0.99999999999999956
tRp1871
ag4
(F1.0000000000000002
F1.0000000000000004
tRp1872
ag4
(F0.99999999999999978
F1
tRp1873
asS'iLAPzMcbcbeefghhhhwjsahhw_21122121'
p1874
(lp1875
g4
(F0.9190311132475969
F0.30079044968429847
tRp1876
ag4
(F2.685162320003057
F3.282461012759144
tRp1877
ag4
(F-1.6179755727121743
F1.5956743597190566
tRp1878
ag4
(F1.2110521515410497
F0.54495763529871188
tRp1879
ag4
(F1.2110521515410502
F0.544957635298712
tRp1880
ag4
(F-1.6179755727121758
F1.595674359719055
tRp1881
ag4
(F0.91903111324759701
F0.30079044968429852
tRp1882
ag4
(F2.6851623200030561
F3.282461012759144
tRp1883
asS'iLLLPQcbcgefhghhtsdawswof_20102221'
p1884
(lp1885
g4
(F1.2548378631138049
F1.0683434208708378
tRp1886
ag4
(F0.53797898473397643
F0.39335529033104744
tRp1887
ag4
(F0.43326039778601733
F2.6811955506345067
tRp1888
ag4
(F-0.040008460253998901
F0.64238139346568879
tRp1889
ag4
(F0.69599700831647349
F0.42989604905819051
tRp1890
ag4
(F0.92972008359816305
F0.30456353226505717
tRp1891
ag4
(F0.92972008359816283
F0.30456353226505706
tRp1892
ag4
(F-0.38249256235173296
F1.4711245246036819
tRp1893
asS'fLLQcbddeeehrcdui_12000'
p1894
(lp1895
g4
(F0.46035518845223367
F1.1393176803019223
tRp1896
ag4
(F0.69512329554696572
F0.75452917314424373
tRp1897
ag4
(F0.33955700789580323
F0.71688505900119248
tRp1898
ag4
(F0.47636446820759254
F0.46007673544378069
tRp1899
ag4
(F0.33955700789580301
F0.7168850590011927
tRp1900
asS'iLPvPQcbdcfghghhxccbrwrrg_01112222'
p1901
(lp1902
g4
(F0.53918887281088901
F0.88749822820031643
tRp1903
ag4
(F0.5
F0.82299382735184035
tRp1904
ag4
(F1.4608111271891122
F0.88749822820031632
tRp1905
ag4
(F1.4608111271891098
F0.88749822820031743
tRp1906
ag4
(F0.92731883985923014
F0.70336153503059262
tRp1907
ag4
(F1.3154488069075725
F0.51922484186086881
tRp1908
ag4
(F1.3154488069075738
F0.51922484186086848
tRp1909
ag4
(F0.92731883985923058
F0.70336153503059251
tRp1910
asS'hLLLQkcdefeggghftaqgcn_2010220'
p1911
(lp1912
g4
(F0.18218696728911871
F0.47820521463063204
tRp1913
ag4
(F1.3042908527442547
F1.8261006647965554
tRp1914
ag4
(F0.58342380570846897
F0.52226024675074012
tRp1915
ag4
(F1.3042908527442556
F1.8261006647965552
tRp1916
ag4
(F-0.097559512631614803
F0.67485166945063912
tRp1917
ag4
(F0.1821869672891184
F0.4782052146306322
tRp1918
ag4
(F0.9334172905037007
F1.1702222813978518
tRp1919
asS'iLLPAMcccdfefghhhwraarhhr_20102212'
p1920
(lp1921
g4
(F0.23947851737063383
F0.63271269635115701
tRp1922
ag4
(F0.70097879183762923
F1.323234273802715
tRp1923
ag4
(F0.77705862542567494
F0.64647070378103422
tRp1924
ag4
(F1.7345014895417079
F0.50932389298177394
tRp1925
ag4
(F0.65223362306962129
F0.74095098322646369
tRp1926
ag4
(F0.65223362306962052
F0.74095098322646369
tRp1927
ag4
(F0.3789655445555663
F1.933974989609375
tRp1928
ag4
(F0.76924476077151682
F0.23274332174951001
tRp1929
asS'gLLPQcdfefefuoaaauo_022110'
p1930
(lp1931
g4
(F0.49999999999999906
F1.3228756555322954
tRp1932
ag4
(F0.25000000000000017
F0.6614378277661479
tRp1933
ag4
(F0.2500000000000005
F0.66143782776614701
tRp1934
ag4
(F0.62499999999999989
F0.33071891388307401
tRp1935
ag4
(F0.625
F0.33071891388307362
tRp1936
ag4
(F0.500000000000001
F1.3228756555322951
tRp1937
asS'hvLPQkcedfggfgwrwxqaar_2011022'
p1938
(lp1939
g4
(F0.41964337760708081
F0.60629072920719917
tRp1940
ag4
(F0.64779887126104185
F1.7214332372471366
tRp1941
ag4
(F0.82389943563052126
F0.86071661862356941
tRp1942
ag4
(F0.22815549365396159
F1.1151425080399373
tRp1943
ag4
(F1.4196433776070803
F0.60629072920719929
tRp1944
ag4
(F0.41964337760708004
F0.60629072920719962
tRp1945
ag4
(F0.41964337760708059
F0.60629072920719951
tRp1946
asS'hLLPAkcecfeegghqraxhhr_1222012'
p1947
(lp1948
g4
(F0.75707474270088193
F0.37643952290254573
tRp1949
ag4
(F0.19070982283287555
F0.45289959452261891
tRp1950
ag4
(F0.21795439419506268
F0.30193338849862655
tRp1951
ag4
(F0.1907098228328758
F0.45289959452261941
tRp1952
ag4
(F0.75707474270088193
F0.37643952290254573
tRp1953
ag4
(F0.75707474270088215
F0.37643952290254556
tRp1954
ag4
(F0.21795439419506255
F0.30193338849862633
tRp1955
asS'hLMzMkbcdefggghhhhhhsj_1221122'
p1956
(lp1957
g4
(F0.87312909051269738
F0.061289650272023009
tRp1958
ag4
(F-0.15240689481280673
F0.10716342261920923
tRp1959
ag4
(F-0.15240689481280667
F0.10716342261920939
tRp1960
ag4
(F0.82410538030915614
F0.17249320053483383
tRp1961
ag4
(F0.82410538030915648
F0.17249320053483405
tRp1962
ag4
(F0.18770257242517735
F0.45948544632651034
tRp1963
ag4
(F0.18770257242517757
F0.45948544632651017
tRp1964
asS'gLMzQbcdefffhhqqxxa_122001'
p1965
(lp1966
g4
(F0.62499999999999978
F0.33071891388307367
tRp1967
ag4
(F0.25000000000000028
F0.66143782776614779
tRp1968
ag4
(F0.25000000000000006
F0.6614378277661479
tRp1969
ag4
(F0.49999999999999978
F1.3228756555322956
tRp1970
ag4
(F0.49999999999999978
F1.3228756555322958
tRp1971
ag4
(F0.62500000000000011
F0.33071891388307406
tRp1972
asS'hLLAMkcedefgggiikaevfg_1022101'
p1973
(lp1974
g4
(F0.72030985026909933
F0.78480516094498132
tRp1975
ag4
(F0.40292713974881406
F1.130605775941393
tRp1976
ag4
(F0.40292713974881456
F1.130605775941393
tRp1977
ag4
(F0.042772214614264156
F0.7382031954689019
tRp1978
ag4
(F0.36523457895942862
F0.69160122999282203
tRp1979
ag4
(F0.40292713974881367
F1.1306057759413928
tRp1980
ag4
(F0.72030985026909955
F0.78480516094498198
tRp1981
asS'hLLzQkcdefggfghspadgsg_1222011'
p1982
(lp1983
g4
(F0.73526470689916301
F0.42616086969284472
tRp1984
ag4
(F0.15826661667412023
F0.63349185195903224
tRp1985
ag4
(F-0.018051700984283856
F0.59006476744060932
tRp1986
ag4
(F0.15826661667412231
F0.63349185195903457
tRp1987
ag4
(F0.6287960304724477
F1.4858135913447184
tRp1988
ag4
(F0.62373639545498705
F0.20052122420035876
tRp1989
ag4
(F0.75843655981578117
F0.57080233526287949
tRp1990
asS'fLLQcaedeedjxahqj_20021'
p1991
(lp1992
g4
(F0.062435102918610423
F0.71569099678596459
tRp1993
ag4
(F-0.1209720637607636
F1.3866977525296753
tRp1994
ag4
(F-0.1209720637607641
F1.386697752529674
tRp1995
ag4
(F0.062435102918610631
F0.71569099678596515
tRp1996
ag4
(F0.062435102918610756
F0.71569099678596482
tRp1997
asS'iLMzMPcbcdefghhhhhqqxxhep_12200112'
p1998
(lp1999
g4
(F0.6019822690865535
F0.35421277762450287
tRp2000
ag4
(F0.35865480815184003
F0.618991496795114
tRp2001
ag4
(F0.25960612763949253
F0.68221189700958706
tRp2002
ag4
(F0.64135921917303573
F1.0104086903092955
tRp2003
ag4
(F0.51275895640436286
F1.2804075145479852
tRp2004
ag4
(F0.5522070579531454
F0.70546094384781677
tRp2005
ag4
(F0.60198226908655328
F0.35421277762450259
tRp2006
ag4
(F0.35865480815183992
F0.61899149679511534
tRp2007
asS'gLLMQbdeefffdwdetpw_210101'
p2008
(lp2009
g4
(F0.97176016752820993
F1.1529384835925769
tRp2010
ag4
(F0.021231924920661182
F0.86682891430862485
tRp2011
ag4
(F0.021231924920661581
F0.86682891430862541
tRp2012
ag4
(F-0.38494932375429658
F2.2407593879312877
tRp2013
ag4
(F0.021231924920661182
F0.86682891430862485
tRp2014
ag4
(F0.61505067624570431
F2.2407593879312873
tRp2015
asS'gLvQQadfedefjaaajkk_200211'
p2016
(lp2017
g4
(F0.21922359359558521
F0.97567464659641467
tRp2018
ag4
(F-0.21922359359558477
F0.97567464659641423
tRp2019
ag4
(F-0.21922359359558477
F0.97567464659641423
tRp2020
ag4
(F0.21922359359558458
F0.97567464659641401
tRp2021
ag4
(F0.21922359359558435
F0.97567464659641401
tRp2022
ag4
(F0.21922359359558521
F0.97567464659641467
tRp2023
asS'hLLLQkacgfefggjkjjfjko_2002121'
p2024
(lp2025
g4
(F0.25301896912823951
F0.3021614256773153
tRp2026
ag4
(F0.12549643972978813
F0.93953260446107534
tRp2027
ag4
(F0.1254964397297875
F0.93953260446107545
tRp2028
ag4
(F0.75156520544208061
F0.80171272736642996
tRp2029
ag4
(F-0.64734167210312366
F1.1380477939485001
tRp2030
ag4
(F0.75156520544208061
F0.80171272736642996
tRp2031
ag4
(F-0.64734167210312465
F1.1380477939484996
tRp2032
asS'hLMzMkbcdefggghhhqxqnv_1221002'
p2033
(lp2034
g4
(F0.65180551783599117
F0.37009050024988893
tRp2035
ag4
(F-0.25432642187471388
F0.59986925557246851
tRp2036
ag4
(F0.4928610619952718
F0.34229826612220704
tRp2037
ag4
(F0.96068865664056624
F0.83452341401128594
tRp2038
ag4
(F0.48805697052848696
F0.53278426304267612
tRp2039
ag4
(F0.67473226656656282
F0.86994289028118865
tRp2040
ag4
(F0.54215021431562016
F0.63707699457961375
tRp2041
asS'fLMPcbcdeeehhhqwg_12210'
p2042
(lp2043
g4
(F0.64492100667946084
F0.35232479362070984
tRp2044
ag4
(F-0.1941746186057981
F0.65238582972145698
tRp2045
ag4
(F0.468355675668017
F0.40338405739035504
tRp2046
ag4
(F1.1937288697048478
F0.90573936906143881
tRp2047
ag4
(F0.54832078020097452
F0.61596614196108301
tRp2048
asS'hLLAMkcddefggghsjahqaq_1000110'
p2049
(lp2050
g4
(F-3.5213797068045696
F1.7157472531903597
tRp2051
ag4
(F0.11965507329885812
F0.42893681329758904
tRp2052
ag4
(F0.16516527338213197
F0.051324465835701716
tRp2053
ag4
(F0.11965507329885791
F0.42893681329758937
tRp2054
ag4
(F-1.3640816006661978
F3.020898779695103
tRp2055
ag4
(F-1.36408160066619
F3.0208987796951003
tRp2056
ag4
(F0.12415925315246215
F0.27496341579048406
tRp2057
asS'eLMkbcddddedde_2100'
p2058
(lp2059
g4
(F0.50000000000000044
F0.86602540378443871
tRp2060
ag4
(F0.5
F0.86602540378443882
tRp2061
ag4
(F0.50000000000000022
F0.8660254037844386
tRp2062
ag4
(F0.49999999999999978
F0.86602540378443849
tRp2063
asS'iLLLQPcbefgeghhhxxqaqhqax_10221012'
p2064
(lp2065
g4
(F0.76068985340228379
F0.85787362659517841
tRp2066
ag4
(F0.54551020008327411
F0.37761234746188754
tRp2067
ag4
(F0.42135094693081215
F0.65257576325237143
tRp2068
ag4
(F0.4213509469308116
F0.65257576325237232
tRp2069
ag4
(F0.7606898534022839
F0.85787362659517785
tRp2070
ag4
(F0.54551020008327378
F0.37761234746188804
tRp2071
ag4
(F0.7606898534022839
F0.8578736265951783
tRp2072
ag4
(F0.42135094693081254
F0.65257576325237132
tRp2073
asS'iLLLQPccegfeehhhhqhaqahxq_20102221'
p2074
(lp2075
g4
(F0.29060173730477995
F0.34694860115404963
tRp2076
ag4
(F0.58120347460956001
F1.6938972023080985
tRp2077
ag4
(F-0.5563468638492699
F1.1375503384588299
tRp2078
ag4
(F0.58120347460955823
F1.6938972023080991
tRp2079
ag4
(F0.29060173730477962
F0.34694860115404969
tRp2080
ag4
(F0.29060173730477934
F0.34694860115404946
tRp2081
ag4
(F1.4187965253904407
F0.30610279769190102
tRp2082
ag4
(F-0.55634686384926935
F1.137550338458829
tRp2083
asS'iLLAMPcbeddfghhhhhcvahhwr_12001122'
p2084
(lp2085
g4
(F1.5642116426002761
F1.3221096372904018
tRp2086
ag4
(F-0.21775662835101856
F0.58488395649558533
tRp2087
ag4
(F0.22487829294196685
F0.68224346352438148
tRp2088
ag4
(F0.22487829294196751
F0.68224346352438092
tRp2089
ag4
(F0.75655574387729407
F0.11898953408201908
tRp2090
ag4
(F1.5642116426002757
F1.3221096372903989
tRp2091
ag4
(F-0.2898729168068257
F0.20286856406545545
tRp2092
ag4
(F-0.21775662835101794
F0.58488395649558489
tRp2093
asS'gLLPQbefefefhhhhhha_011102'
p2094
(lp2095
g4
(F1
F1.7320508075688761
tRp2096
ag4
(F0.99999999999999989
F0.57735026918962551
tRp2097
ag4
(F0.99999999999999989
F0.57735026918962551
tRp2098
ag4
(F0.99999999999999989
F0.57735026918962551
tRp2099
ag4
(F0.99999999999999978
F1.7320508075688792
tRp2100
ag4
(F0.99999999999999967
F1.7320508075688781
tRp2101
asS'hLLAPkbeddfggghhnkbgfo_2111222'
p2102
(lp2103
g4
(F0.89131529829213474
F0.60574529396726129
tRp2104
ag4
(F1.2869640926902401
F1.5993708953807484
tRp2105
ag4
(F0.033279202427487595
F1.2217249407398152
tRp2106
ag4
(F0.033279202427487053
F1.2217249407398152
tRp2107
ag4
(F0.89131529829213452
F0.60574529396726096
tRp2108
ag4
(F0.97772057867745887
F0.81790796381936748
tRp2109
ag4
(F0.97772057867745887
F0.81790796381936748
tRp2110
asS'iLMzMPcbcdefghhhhhhqxqqdm_12210022'
p2111
(lp2112
g4
(F0.66917922702984944
F0.34436540595510179
tRp2113
ag4
(F-0.27991172146348348
F0.51200868543003708
tRp2114
ag4
(F0.48067485617663863
F0.36808514976732215
tRp2115
ag4
(F0.83378774065165417
F0.6934168941726162
tRp2116
ag4
(F0.53722908763211619
F0.6022285359580285
tRp2117
ag4
(F0.63880961400973535
F1.2820532822803494
tRp2118
ag4
(F0.46685509883905696
F0.46335339052967833
tRp2119
ag4
(F-0.15566900743803694
F0.7911206251261963
tRp2120
asS'hLLLQkcdgfefgghfhaqofo_2010222'
p2121
(lp2122
g4
(F0.33595746352080191
F0.3154069691577453
tRp2123
ag4
(F0.91980069261801789
F2.0057123896335063
tRp2124
ag4
(F0.22872076776961142
F0.58361787387626374
tRp2125
ag4
(F1.9198006926180173
F2.0057123896335072
tRp2126
ag4
(F0.019903960082713255
F0.49778010114881982
tRp2127
ag4
(F-0.18891284760418506
F0.41194232842137596
tRp2128
ag4
(F0.33595746352080197
F0.31540696915774519
tRp2129
asS'iLvLQQcceehgfghhpaaauvvbb_10221110'
p2130
(lp2131
g4
(F0.60295106682249378
F1.50504559366611
tRp2132
ag4
(F0.27519204509542289
F0.26264892611453033
tRp2133
ag4
(F0.77062872824153961
F0.57254102508337013
tRp2134
ag4
(F0.77062872824153983
F0.57254102508337024
tRp2135
ag4
(F0.60295106682249389
F1.5050455936661096
tRp2136
ag4
(F-1.9016122500313901
F1.8149376926349492
tRp2137
ag4
(F-1.9016122500313899
F1.8149376926349505
tRp2138
ag4
(F0.27519204509542311
F0.26264892611453006
tRp2139
asS'ivLLQQccfhfeghghwadiwadrv_20110220'
p2140
(lp2141
g4
(F0.34915206318402287
F0.54075628827498057
tRp2142
ag4
(F1.157298106138376
F1.305151526504744
tRp2143
ag4
(F0.57864905306918801
F0.65257576325237199
tRp2144
ag4
(F0.57864905306918812
F0.65257576325237199
tRp2145
ag4
(F1.1572981061383758
F1.3051515265047444
tRp2146
ag4
(F0.23931014659771632
F0.85787362659517896
tRp2147
ag4
(F0.34915206318402342
F0.54075628827498035
tRp2148
ag4
(F0.69830412636804617
F1.0815125765499607
tRp2149
asS'gLMzQbcdefffhxqqxha_120021'
p2150
(lp2151
g4
(F0.50000000000000022
F0.86602540378443882
tRp2152
ag4
(F0.49999999999999944
F0.86602540378443849
tRp2153
ag4
(F0.50000000000000033
F0.86602540378443893
tRp2154
ag4
(F0.49999999999999922
F0.86602540378443837
tRp2155
ag4
(F0.50000000000000022
F0.86602540378443882
tRp2156
ag4
(F0.49999999999999978
F0.86602540378443771
tRp2157
asS'iLMzMPcbcdefghhhhhhhhxqti_12211200'
p2158
(lp2159
g4
(F0.76600458032255914
F0.15619495195361338
tRp2160
ag4
(F-0.25336201749465137
F0.25557134399982856
tRp2161
ag4
(F-0.057009985241295559
F0.54432884564965733
tRp2162
ag4
(F0.74776238247026727
F0.38507548665906061
tRp2163
ag4
(F1.7438562404156313
F0.76177110172339324
tRp2164
ag4
(F0.51844865356859937
F0.2103567319402436
tRp2165
ag4
(F0.3639515356784449
F0.52485120606290259
tRp2166
ag4
(F0.36395153567844452
F0.52485120606290225
tRp2167
asS'hLLLQkbdfggfgfxnqahnvc_1022201'
p2168
(lp2169
g4
(F0.64719031242180558
F0.69435760739187402
tRp2170
ag4
(F0.58161147664439428
F1.1446577788909233
tRp2171
ag4
(F0.30883719120390729
F0.61362291728884077
tRp2172
ag4
(F0.30883719120390712
F0.61362291728884055
tRp2173
ag4
(F0.3088371912039069
F0.61362291728884055
tRp2174
ag4
(F0.61569461071952558
F0.37137383046112171
tRp2175
ag4
(F0.64719031242180591
F0.69435760739187469
tRp2176
asS'iLLPMPcccdfeghhhhwraahhwr_20102211'
p2177
(lp2178
g4
(F0.15749195302277094
F0.642300439414351
tRp2179
ag4
(F1.1357797950829995
F1.0988769228244937
tRp2180
ag4
(F0.75065112166777792
F0.57227173915303986
tRp2181
ag4
(F1.1357797950829995
F1.0988769228244941
tRp2182
ag4
(F0.61276539380767059
F0.41090992792855563
tRp2183
ag4
(F0.61276539380766992
F0.41090992792855557
tRp2184
ag4
(F-0.47909153150178019
F1.6254821064959479
tRp2185
ag4
(F-0.47909153150177991
F1.6254821064959473
tRp2186
asS'iLvAQPcceeggfhhhppuaupupp_10221212'
p2187
(lp2188
g4
(F0.50000000000000022
F0.86602540378443882
tRp2189
ag4
(F0.49999999999999989
F0.86602540378443893
tRp2190
ag4
(F0.49999999999999956
F0.86602540378443815
tRp2191
ag4
(F0.49999999999999989
F0.86602540378443904
tRp2192
ag4
(F0.49999999999999944
F0.86602540378443882
tRp2193
ag4
(F0.49999999999999967
F0.86602540378443804
tRp2194
ag4
(F0.49999999999999967
F0.86602540378443826
tRp2195
ag4
(F0.50000000000000044
F0.86602540378443871
tRp2196
asS'gvLQQcdefeffwcgmktq_102021'
p2197
(lp2198
g4
(F0.68301270189221941
F0.94842978276640488
tRp2199
ag4
(F0.23205080756887708
F0.69429878839652104
tRp2200
ag4
(F0.5
F0.69429878839652104
tRp2201
ag4
(F0.3169872981077807
F0.94842978276640433
tRp2202
ag4
(F-0.43301270189221969
F1.2955791769646654
tRp2203
ag4
(F0.68301270189221897
F0.94842978276640488
tRp2204
asS'hLLzQkcdfgefggqraqqsjk_0222100'
p2205
(lp2206
g4
(F0.5
F0.46583059998263604
tRp2207
ag4
(F0.68166411896634183
F0.73166524375143072
tRp2208
ag4
(F1.0706680578276828
F0.99749988752022589
tRp2209
ag4
(F0.68166411896634194
F0.73166524375143094
tRp2210
ag4
(F0.92933194217231785
F0.99749988752022556
tRp2211
ag4
(F0.31833588103365812
F0.73166524375143094
tRp2212
ag4
(F0.31833588103365817
F0.73166524375143105
tRp2213
asS'iLLvQQcbegfhhfghhhheljvkf_12001122'
p2214
(lp2215
g4
(F0.90897959983345211
F0.75522469492377509
tRp2216
ag4
(F-0.091020400166547819
F0.75522469492377542
tRp2217
ag4
(F0.69830412636804617
F1.0815125765499611
tRp2218
ag4
(F0.69830412636804617
F1.0815125765499611
tRp2219
ag4
(F0.90897959983345233
F0.75522469492377575
tRp2220
ag4
(F0.57864905306918812
F0.6525757632523721
tRp2221
ag4
(F-0.091020400166547805
F0.75522469492377531
tRp2222
ag4
(F0.23931014659771624
F0.85787362659517863
tRp2223
asS'iLMzMPcbcdefghhhhhhhxxqum_12211002'
p2224
(lp2225
g4
(F0.73486392349159102
F0.17453689052878307
tRp2226
ag4
(F-0.22708222307423959
F0.46306846130327201
tRp2227
ag4
(F-0.13645774248803494
F0.55050984988153595
tRp2228
ag4
(F1.0642609452212661
F0.83551487875684582
tRp2229
ag4
(F1.4882134728613314
F0.88804936405751767
tRp2230
ag4
(F0.70802653964083162
F0.92390560417684509
tRp2231
ag4
(F0.48508112197979775
F0.57363708474097708
tRp2232
ag4
(F0.52466416344484956
F0.62869485681692361
tRp2233
asS'hLLAMkbeddfggghhnkahha_2111221'
p2234
(lp2235
g4
(F1.2853752818613207
F0.31316125735072675
tRp2236
ag4
(F0.75805587247846729
F2.7733955050593502
tRp2237
ag4
(F-0.58975451230145803
F1.7445432509226606
tRp2238
ag4
(F-0.58975451230145848
F1.7445432509226595
tRp2239
ag4
(F0.8369525961949833
F0.25721306353417367
tRp2240
ag4
(F1.2853752818613207
F0.31316125735072675
tRp2241
ag4
(F0.7580558724784664
F2.7733955050593506
tRp2242
asS'gLLAQbeddfffhhcvarw_120011'
p2243
(lp2244
g4
(F1.3816690688553901
F1.3333734587381536
tRp2245
ag4
(F-0.27723538949728488
F0.85776682119465641
tRp2246
ag4
(F0.28623544188238081
F0.61724025425940399
tRp2247
ag4
(F0.28623544188238109
F0.61724025425940332
tRp2248
ag4
(F0.53957946043209815
F0.36237122958121099
tRp2249
ag4
(F1.3816690688553874
F1.3333734587381518
tRp2250
asS'iLLLQPcbeegefhhhhhhahahha_12001112'
p2251
(lp2252
g4
(F0.99999999999999956
F0.99999999999999956
tRp2253
ag4
(F-1.61e-16
F1.0000000000000002
tRp2254
ag4
(F0.49999999999999994
F0.50000000000000011
tRp2255
ag4
(F0.49999999999999994
F0.50000000000000011
tRp2256
ag4
(F1.0000000000000002
F1.0000000000000007
tRp2257
ag4
(F1.0000000000000002
F1
tRp2258
ag4
(F1.0000000000000002
F1.0000000000000002
tRp2259
ag4
(F6.1000000000000005e-17
F1.0000000000000002
tRp2260
asS'gLLPQbefefefhhxhqhh_211120'
p2261
(lp2262
g4
(F0.99999999999999989
F0.57735026918962584
tRp2263
ag4
(F1
F1.7320508075688767
tRp2264
ag4
(F1.0000000000000004
F1.7320508075688772
tRp2265
ag4
(F1.0000000000000002
F1.7320508075688774
tRp2266
ag4
(F1
F0.57735026918962584
tRp2267
ag4
(F1.0000000000000002
F0.57735026918962606
tRp2268
asS'hLLPPkaceeffggjkqsbjqs_2002120'
p2269
(lp2270
g4
(F0.2348293572214635
F0.44705118610433375
tRp2271
ag4
(F0.40378770356057442
F1.095325898759381
tRp2272
ag4
(F0.40378770356057464
F1.0953258987593806
tRp2273
ag4
(F0.383365006131829
F0.70429547059317255
tRp2274
ag4
(F-0.34906338197160103
F0.54000447480514224
tRp2275
ag4
(F0.38336500613182911
F0.70429547059317277
tRp2276
ag4
(F0.079099079288936752
F1.7531447250021488
tRp2277
asS'iLLAPMccecdfgghhpqrrccwan_10221110'
p2278
(lp2279
g4
(F0.87430246376283749
F0.75936664766131212
tRp2280
ag4
(F0.16358347432565004
F0.63011747351260217
tRp2281
ag4
(F0.34804268967153845
F0.56625099171252402
tRp2282
ag4
(F0.18776709256138779
F1.3278322618992229
tRp2283
ag4
(F-1.0626922310301785
F1.4023258564536738
tRp2284
ag4
(F0.3305990757591748
F1.5697483783808379
tRp2285
ag4
(F0.33059907575917535
F1.569748378380839
tRp2286
ag4
(F0.29580453377333071
F0.38376826526524854
tRp2287
asS'hLMzMkbcdefggghhqqxxrw_1220011'
p2288
(lp2289
g4
(F0.57412600589561535
F0.38265999731642586
tRp2290
ag4
(F0.37802070648442337
F0.62969258312744547
tRp2291
ag4
(F0.37802070648442215
F0.62969258312744469
tRp2292
ag4
(F0.64128830888273092
F0.93693040881498457
tRp2293
ag4
(F0.64128830888273081
F0.93693040881498357
tRp2294
ag4
(F0.5593095520392718
F0.8258215559185601
tRp2295
ag4
(F0.55930955203927291
F0.82582155591855888
tRp2296
asS'fLLQcbcdeeelonlel_02211'
p2297
(lp2298
g4
(F0.33955700789580301
F0.71688505900119293
tRp2299
ag4
(F0.69512329554696528
F0.7545291731442435
tRp2300
ag4
(F1.0777392419995997
F0.94692342672308294
tRp2301
ag4
(F0.46035518845223378
F1.1393176803019225
tRp2302
ag4
(F0.46035518845223328
F1.1393176803019227
tRp2303
asS'hLLMMkbedfeggghhcqxcvn_1200121'
p2304
(lp2305
g4
(F0.83658714263892553
F0.90479318856577062
tRp2306
ag4
(F-0.16341285736107425
F0.90479318856577051
tRp2307
ag4
(F0.19330690496759392
F1.0703121758096936
tRp2308
ag4
(F0.65393452247698691
F0.71719401759740553
tRp2309
ag4
(F0.83658714263892553
F0.90479318856577062
tRp2310
ag4
(F-0.16341285736107342
F0.90479318856577051
tRp2311
ag4
(F0.83658714263892653
F0.9047931885657704
tRp2312
asS'iLLLPQccdgefhhghqrqqssvof_02221000'
p2313
(lp2314
g4
(F0.38034492670114201
F0.42893681329758926
tRp2315
ag4
(F0.76068985340228379
F0.8578736265951783
tRp2316
ag4
(F0.65084793681597708
F0.5407562882749809
tRp2317
ag4
(F0.76068985340228357
F0.85787362659517863
tRp2318
ag4
(F0.84270189386162453
F1.305151526504744
tRp2319
ag4
(F0.42135094693081176
F0.6525757632523721
tRp2320
ag4
(F0.38034492670114189
F0.42893681329758926
tRp2321
ag4
(F0.42135094693081199
F0.65257576325237188
tRp2322
asS'hLLzQkcdfgegfghshahwwc_1222011'
p2323
(lp2324
g4
(F0.974316588609626
F0.56924477002593088
tRp2325
ag4
(F0.38336500613182933
F0.70429547059317321
tRp2326
ag4
(F0.2348293572214635
F0.44705118610433364
tRp2327
ag4
(F0.38336500613182817
F0.70429547059317288
tRp2328
ag4
(F0.63888907830886854
F0.25573517582747973
tRp2329
ag4
(F0.70370366772566451
F0.80374177714108797
tRp2330
ag4
(F0.70370366772566428
F0.80374177714108941
tRp2331
asS'ivLAPQceddfhgghhgwfletbbv_21001011'
p2332
(lp2333
g4
(F0.72283869758637853
F0.7564462849497321
tRp2334
ag4
(F0.42703969251392521
F1.1655039362102446
tRp2335
ag4
(F-0.001479278810645827
F0.73451198180764876
tRp2336
ag4
(F0.9708019199716903
F0.58988310774625097
tRp2337
ag4
(F1.0837065859674242
F1.6911078064522973
tRp2338
ag4
(F-0.00147927881064338
F0.73451198180764854
tRp2339
ag4
(F0.0027418930174272211
F1.3614426568165006
tRp2340
ag4
(F0.002741893017427222
F1.3614426568165008
tRp2341
asS'iLvPAQcafefegghhnxxnnkkxn_10012210'
p2342
(lp2343
g4
(F0.45796992530269232
F1.6784146972755538
tRp2344
ag4
(F0.20723939190986598
F0.94337783042122103
tRp2345
ag4
(F0.20723939190986596
F0.94337783042122081
tRp2346
ag4
(F0.77785701203329805
F1.0112207341472006
tRp2347
ag4
(F0.26539740531440636
F0.5375259031215408
tRp2348
ag4
(F-1.3907257080662605
F1.1238990867850385
tRp2349
ag4
(F0.7778570120332986
F1.0112207341472004
tRp2350
ag4
(F0.17423731607836529
F0.53953181893658986
tRp2351
asS'hLMzMkbcdefggghhhhxxjs_1221100'
p2352
(lp2353
g4
(F0.7642347873055847
F0.14549897861522981
tRp2354
ag4
(F-0.22599972019369594
F0.39976650629639804
tRp2355
ag4
(F-0.22599972019369594
F0.39976650629639804
tRp2356
ag4
(F0.99147505186390239
F0.76115498055958741
tRp2357
ag4
(F0.99147505186390217
F0.76115498055958741
tRp2358
ag4
(F0.72347854017153135
F1.1611544591315743
tRp2359
ag4
(F0.72347854017153157
F1.1611544591315741
tRp2360
asS'hLLPAkccdfefgghwraarhw_2010221'
p2361
(lp2362
g4
(F0.22929547626026409
F0.63336571722623702
tRp2363
ag4
(F0.81072677073850086
F1.5058720647063937
tRp2364
ag4
(F0.77447031231394936
F0.63646044589041495
tRp2365
ag4
(F1.5785985300387897
F0.64709586981921174
tRp2366
ag4
(F0.57859853003878992
F0.64709586981921174
tRp2367
ag4
(F0.57859853003878969
F0.64709586981921174
tRp2368
ag4
(F0.494641724264755
F1.3959133079623476
tRp2369
asS'ivvPQQcfghghfghfaqqhhaxxa_10000122'
p2370
(lp2371
g4
(F6.1000000000000005e-17
F1
tRp2372
ag4
(F5.0500000000000002e-16
F0.99999999999999967
tRp2373
ag4
(F-3.8300000000000001e-16
F1.0000000000000004
tRp2374
ag4
(F5.0500000000000002e-16
F0.99999999999999967
tRp2375
ag4
(F-1.61e-16
F1.0000000000000004
tRp2376
ag4
(F-1.61e-16
F1
tRp2377
ag4
(F6.1000000000000005e-17
F0.99999999999999967
tRp2378
ag4
(F6.1000000000000005e-17
F1.0000000000000002
tRp2379
asS'iLMzMPcbcdefghhhhhhhhhqqa_12211220'
p2380
(lp2381
g4
(F0.838979078993769
F0.078889868935426613
tRp2382
ag4
(F-0.1996158732051958
F0.16282009115765059
tRp2383
ag4
(F-0.19961587320519589
F0.1628200911576505
tRp2384
ag4
(F0.77371189729302936
F0.29282598984478647
tRp2385
ag4
(F0.77371189729302947
F0.29282598984478647
tRp2386
ag4
(F0.47834228478234175
F0.32059982902850309
tRp2387
ag4
(F0.47834228478234203
F0.32059982902850309
tRp2388
ag4
(F0.55243830887017498
F0.7762459100309399
tRp2389
asS'iLMzMPcbcdefghhhhhhhhxqpe_12211200'
p2390
(lp2391
g4
(F0.76600458032255936
F0.1561949519536136
tRp2392
ag4
(F-0.25336201749465109
F0.2555713439998285
tRp2393
ag4
(F-0.057009985241295337
F0.54432884564965744
tRp2394
ag4
(F0.74776238247026738
F0.38507548665906033
tRp2395
ag4
(F1.7438562404156321
F0.76177110172339402
tRp2396
ag4
(F0.51844865356859937
F0.2103567319402441
tRp2397
ag4
(F0.36395153567844457
F0.52485120606290248
tRp2398
ag4
(F0.36395153567844457
F0.52485120606290203
tRp2399
asS'gLMzQbcdefffhhhqxlm_122100'
p2400
(lp2401
g4
(F0.62190213347233569
F0.43812180422056207
tRp2402
ag4
(F-0.074629662876586261
F0.7570623437801216
tRp2403
ag4
(F0.49999999999999994
F0.29139099506719829
tRp2404
ag4
(F1.4929441429121912
F0.87006095876585898
tRp2405
ag4
(F0.37809786652766425
F0.43812180422056235
tRp2406
ag4
(F0.37809786652766419
F0.43812180422056218
tRp2407
asS'hLMzMkbcdefggghhqqqqbg_1220022'
p2408
(lp2409
g4
(F0.4771352678571984
F0.54672341675819991
tRp2410
ag4
(F0.51909026010086357
F0.45647122231574799
tRp2411
ag4
(F0.51909026010086357
F0.4564712223157476
tRp2412
ag4
(F0.43509333764429192
F0.42161460486548069
tRp2413
ag4
(F0.43509333764429137
F0.42161460486548064
tRp2414
ag4
(F0.70779662131580789
F0.72144033166905031
tRp2415
ag4
(F0.70779662131580856
F0.72144033166904942
tRp2416
asS'iLLwQMcbeefgeghhxxhaahnxn_10221110'
p2417
(lp2418
g4
(F1.0215924494709696
F1.0780096747842429
tRp2419
ag4
(F0.46164665664202342
F0.50864239745780104
tRp2420
ag4
(F0.20736762104603013
F0.7178052316578365
tRp2421
ag4
(F-0.73382638442706272
F1.2658797664401884
tRp2422
ag4
(F1.0215924494709692
F1.0780096747842427
tRp2423
ag4
(F0.73527535272449396
F0.97875828177625068
tRp2424
ag4
(F0.73527535272449407
F0.97875828177625046
tRp2425
ag4
(F0.21683252092394004
F0.66144958069841497
tRp2426
asS'eLMkbcdddhhqqa_1220'
p2427
(lp2428
g4
(F0.49999999999999994
F0.50000000000000011
tRp2429
ag4
(F0.50000000000000011
F0.50000000000000011
tRp2430
ag4
(F0.50000000000000011
F0.49999999999999994
tRp2431
ag4
(F0.49999999999999989
F0.49999999999999989
tRp2432
asS'iLLvQQcbeghffhghxxaaabbwr_10221111'
p2433
(lp2434
g4
(F1.101436153268823
F0.46235349476163756
tRp2435
ag4
(F0.87992032302804979
F0.45276052218637769
tRp2436
ag4
(F-0.063116099238716361
F0.41053123448849943
tRp2437
ag4
(F-0.063116099238717416
F0.41053123448849965
tRp2438
ag4
(F1.1014361532688228
F0.46235349476163773
tRp2439
ag4
(F0.81856760659393135
F0.3160967746494876
tRp2440
ag4
(F1.1014361532688222
F0.4623534947616379
tRp2441
ag4
(F0.81856760659393091
F0.31609677464948749
tRp2442
asS'hLLLQkbeegefgghhhahabg_1200111'
p2443
(lp2444
g4
(F0.83928675521416052
F1.2125814584143988
tRp2445
ag4
(F-0.16071324478583918
F1.2125814584143988
tRp2446
ag4
(F0.41194971781526063
F0.4303583093117842
tRp2447
ag4
(F0.41194971781526046
F0.43035830931178409
tRp2448
ag4
(F0.8392867552141613
F1.2125814584143986
tRp2449
ag4
(F0.83928675521416107
F1.2125814584143983
tRp2450
ag4
(F0.83928675521416196
F1.212581458414399
tRp2451
asS'hLLLQkbceegfggtsumxfjr_2010222'
p2452
(lp2453
g4
(F0.63082251436860337
F0.84539409340909477
tRp2454
ag4
(F0.43303387036784236
F0.75981723263917844
tRp2455
ag4
(F-0.31675412853665819
F1.0665872552733837
tRp2456
ag4
(F0.25587163486539183
F0.86158127123450401
tRp2457
ag4
(F0.57415127570242963
F0.66477506997213709
tRp2458
ag4
(F0.63082251436860548
F0.8453940934090951
tRp2459
ag4
(F0.63082251436860437
F0.84539409340909444
tRp2460
asS'iLvPQMcccgfeefhhhraaasshr_12220012'
p2461
(lp2462
g4
(F0.63378522966214756
F0.50488794565639916
tRp2463
ag4
(F0.37740087413020951
F0.4626730540881368
tRp2464
ag4
(F0.31435043196493312
F0.28530904298976678
tRp2465
ag4
(F0.37740087413021034
F0.46267305408813758
tRp2466
ag4
(F0.6337852296621479
F0.50488794565639905
tRp2467
ag4
(F0.63378522966214679
F0.50488794565639905
tRp2468
ag4
(F0.63378522966214712
F0.50488794565639916
tRp2469
ag4
(F0.31435043196493317
F0.285309042989766
tRp2470
asS'hLLLQkbeefeggghhhqhqvc_2111200'
p2471
(lp2472
g4
(F0.89258446716714179
F0.81045021293916375
tRp2473
ag4
(F1.160713244785839
F1.2125814584143995
tRp2474
ag4
(F1.160713244785839
F1.2125814584143995
tRp2475
ag4
(F1.160713244785839
F1.2125814584143995
tRp2476
ag4
(F0.89258446716714179
F0.81045021293916364
tRp2477
ag4
(F0.89258446716714168
F0.81045021293916442
tRp2478
ag4
(F0.89258446716714224
F0.81045021293916431
tRp2479
asS'ivLAAQcecfgfghhhccaxllqvk_01111002'
p2480
(lp2481
g4
(F1.9562055718592517
F1.058457285292786
tRp2482
ag4
(F0.68863798182167557
F0.28816660354271362
tRp2483
ag4
(F0.6045730592787717
F0.21395631023053693
tRp2484
ag4
(F0.7944308242657967
F0.82721011807929279
tRp2485
ag4
(F0.9224624118785506
F0.88277327629600311
tRp2486
ag4
(F0.098736171601741515
F1.1241212914344181
tRp2487
ag4
(F0.28294452520854768
F1.1385684321188307
tRp2488
ag4
(F0.64256793648555088
F0.58893460548414955
tRp2489
asS'iLLLQPccegffghhhhhhaxahxa_02221002'
p2490
(lp2491
g4
(F0.12500000000000039
F0.33071891388307351
tRp2492
ag4
(F0.62499999999999978
F0.33071891388307428
tRp2493
ag4
(F0.87500000000000011
F0.33071891388307395
tRp2494
ag4
(F1.3125000000000007
F0.165359456941536
tRp2495
ag4
(F0.25000000000000044
F0.66143782776614835
tRp2496
ag4
(F0.31250000000000033
F0.1653594569415367
tRp2497
ag4
(F0.12499999999999969
F0.33071891388307406
tRp2498
ag4
(F0.62499999999999956
F0.33071891388307312
tRp2499
asS'iLvLQQccegfhfghhhthhmssrr_20102110'
p2500
(lp2501
g4
(F0.67076034261773754
F0.8436480880170204
tRp2502
ag4
(F0.249226580308684
F0.72400276415208153
tRp2503
ag4
(F0.40144282292654337
F1.0286624421337978
tRp2504
ag4
(F0.24922658030868469
F0.72400276415208087
tRp2505
ag4
(F0.69015012845036561
F0.66554114406903331
tRp2506
ag4
(F-0.5985571770734579
F1.0286624421337973
tRp2507
ag4
(F-0.1944056609899556
F1.4198946342513619
tRp2508
ag4
(F0.24922658030868525
F0.72400276415208042
tRp2509
asS'ivLLQQccdgffhghhvvaaaaavv_01111220'
p2510
(lp2511
g4
(F1.0000000000000002
F0.99999999999999978
tRp2512
ag4
(F0.99999999999999978
F1.0000000000000002
tRp2513
ag4
(F0.49999999999999989
F0.49999999999999989
tRp2514
ag4
(F0.99999999999999978
F1.0000000000000002
tRp2515
ag4
(F1.0000000000000002
F1
tRp2516
ag4
(F1.0000000000000002
F1.0000000000000002
tRp2517
ag4
(F0.99999999999999933
F0.99999999999999956
tRp2518
ag4
(F-1.61e-16
F0.99999999999999967
tRp2519
asS'iLLLPQccegfgghhhhhhxagrvc_02221000'
p2520
(lp2521
g4
(F0.019090260100863551
F0.45647122231574788
tRp2522
ag4
(F0.70779662131580856
F0.72144033166905053
tRp2523
ag4
(F0.77346782062706454
F0.2595709339799212
tRp2524
ag4
(F1.4350933376442914
F0.42161460486548058
tRp2525
ag4
(F0.48229603712674585
F1.1907727232799836
tRp2526
ag4
(F0.43509333764429087
F0.42161460486548041
tRp2527
ag4
(F0.019090260100864131
F0.4564712223157471
tRp2528
ag4
(F0.43509333764429214
F0.42161460486548058
tRp2529
asS'gLMzQbcdefffhhhhhit_122112'
p2530
(lp2531
g4
(F0.83744720895932567
F0.094170689286919379
tRp2532
ag4
(F-0.17919428435519258
F0.13260004615564672
tRp2533
ag4
(F-0.18131088265957887
F0.26390471180142705
tRp2534
ag4
(F0.80627789633971725
F0.18012238690829985
tRp2535
ag4
(F0.91401599020943058
F0.53890442876447631
tRp2536
ag4
(F0.18814984263644946
F0.47866738654769825
tRp2537
asS'iLLPLQcbcfffhgghlohmgoonr_02211002'
p2538
(lp2539
g4
(F0.34624516302844732
F0.50349319228730705
tRp2540
ag4
(F0.96013230516451875
F0.73945162927565411
tRp2541
ag4
(F1.0544073925079138
F0.64140924368932006
tRp2542
ag4
(F1.0435732022622561
F1.2259605673309757
tRp2543
ag4
(F1.0435732022622564
F1.2259605673309764
tRp2544
ag4
(F0.14038146340206295
F0.46375973546233767
tRp2545
ag4
(F0.57646760985407408
F1.1275337734909785
tRp2546
ag4
(F1.1733182692613018
F1.3282507045033254
tRp2547
asS'iLLPPMcaceeffghhjkqsbjqqj_20021202'
p2548
(lp2549
g4
(F0.26014917339170507
F0.47220242129896506
tRp2550
ag4
(F0.45958083443224551
F1.0662326801566546
tRp2551
ag4
(F0.45958083443224551
F1.0662326801566537
tRp2552
ag4
(F0.29303102070084447
F0.70936509732003106
tRp2553
ag4
(F-0.41849434922748896
F0.48694191930874114
tRp2554
ag4
(F0.29303102070084425
F0.70936509732003095
tRp2555
ag4
(F-0.011818386000048699
F2.5929593145913818
tRp2556
ag4
(F0.18049324312993245
F0.17655274030783955
tRp2557
asS'eLAkaccddjsnak_2001'
p2558
(lp2559
g4
(F-0.25518848309499553
F1.035977695533687
tRp2560
ag4
(F0.45777817665112519
F1.0255893903647877
tRp2561
ag4
(F0.45777817665112502
F1.0255893903647861
tRp2562
ag4
(F1.3867860965127012
F1.3965147558723825
tRp2563
asS'hLMzMkbcdefggghhhhhhfo_1221122'
p2564
(lp2565
g4
(F0.87312909051269771
F0.061289650272023023
tRp2566
ag4
(F-0.15240689481280639
F0.1071634226192093
tRp2567
ag4
(F-0.15240689481280639
F0.10716342261920919
tRp2568
ag4
(F0.82410538030915614
F0.17249320053483386
tRp2569
ag4
(F0.82410538030915637
F0.17249320053483366
tRp2570
ag4
(F0.18770257242517738
F0.45948544632651078
tRp2571
ag4
(F0.18770257242517785
F0.45948544632651045
tRp2572
asS'iLLPwQcccdfehgghhwraahhww_20102211'
p2573
(lp2574
g4
(F0.16272175831909275
F0.61050796208581626
tRp2575
ag4
(F1.1955670593924668
F1.0026969500532252
tRp2576
ag4
(F0.77976668564574392
F0.56857296231689392
tRp2577
ag4
(F1.1955670593924683
F1.0026969500532268
tRp2578
ag4
(F0.71482845702288544
F0.45941347525769105
tRp2579
ag4
(F0.714828457022885
F0.45941347525769155
tRp2580
ag4
(F-0.02466625496178991
F1.5712699123701193
tRp2581
ag4
(F-0.024666254961787537
F1.5712699123701233
tRp2582
asS'iLvLQQcbefehgghhhiiixgrrc_12000011'
p2583
(lp2584
g4
(F-0.074767593060803217
F2.6171638998482472
tRp2585
ag4
(F1.0109067976729615
F0.38178141042214758
tRp2586
ag4
(F0.16558694777829489
F0.19057378437013586
tRp2587
ag4
(F0.16972738930107181
F0.084271765424134518
tRp2588
ag4
(F0.16972738930107187
F0.084271765424134545
tRp2589
ag4
(F0.16558694777829505
F0.19057378437013575
tRp2590
ag4
(F-0.5979556103957675
F2.9899834433909724
tRp2591
ag4
(F-0.59795561039576905
F2.9899834433909738
tRp2592
as.